ARM GAS  C:\Users\annat\AppData\Local\Temp\cc9O2xHh.s 			page 1


   1              		.syntax unified
   2              		.cpu cortex-m3
   3              		.fpu softvfp
   4              		.eabi_attribute 20, 1
   5              		.eabi_attribute 21, 1
   6              		.eabi_attribute 23, 3
   7              		.eabi_attribute 24, 1
   8              		.eabi_attribute 25, 1
   9              		.eabi_attribute 26, 1
  10              		.eabi_attribute 30, 1
  11              		.eabi_attribute 34, 1
  12              		.eabi_attribute 18, 4
  13              		.thumb
  14              		.syntax unified
  15              		.file	"main.c"
  16              		.text
  17              	.Ltext0:
  18              		.cfi_sections	.debug_frame
  19              		.section	.text.main,"ax",%progbits
  20              		.align	2
  21              		.global	main
  22              		.thumb
  23              		.thumb_func
  24              		.type	main, %function
  25              	main:
  26              	.LFB64:
  27              		.file 1 "main.c"
   1:main.c        **** /* ========================================
   2:main.c        ****  *
   3:main.c        ****  * Copyright YOUR COMPANY, THE YEAR
   4:main.c        ****  * All Rights Reserved
   5:main.c        ****  * UNPUBLISHED, LICENSED SOFTWARE.
   6:main.c        ****  *
   7:main.c        ****  * CONFIDENTIAL AND PROPRIETARY INFORMATION
   8:main.c        ****  * WHICH IS THE PROPERTY OF your company.
   9:main.c        ****  *
  10:main.c        ****  * ========================================
  11:main.c        **** */
  12:main.c        **** #include "project.h"
  13:main.c        **** #include <stdio.h>
  14:main.c        **** #include <string.h>
  15:main.c        **** #include "25LC256.h"
  16:main.c        **** 
  17:main.c        **** #define DATA_SIZE 64
  18:main.c        **** #define EEPROM_BYTES 32768
  19:main.c        **** char message[100];
  20:main.c        **** 
  21:main.c        **** 
  22:main.c        **** int main(void)
  23:main.c        **** {
  28              		.loc 1 23 0
  29              		.cfi_startproc
  30              		@ args = 0, pretend = 0, frame = 32832
  31              		@ frame_needed = 0, uses_anonymous_args = 0
  32 0000 70B5     		push	{r4, r5, r6, lr}
  33              		.cfi_def_cfa_offset 16
  34              		.cfi_offset 4, -16
ARM GAS  C:\Users\annat\AppData\Local\Temp\cc9O2xHh.s 			page 2


  35              		.cfi_offset 5, -12
  36              		.cfi_offset 6, -8
  37              		.cfi_offset 14, -4
  38 0002 ADF5004D 		sub	sp, sp, #32768
  39              		.cfi_def_cfa_offset 32784
  40 0006 90B0     		sub	sp, sp, #64
  41              		.cfi_def_cfa_offset 32848
  24:main.c        ****     CyGlobalIntEnable; /* Enable global interrupts. */
  42              		.loc 1 24 0
  43              		.syntax unified
  44              	@ 24 "main.c" 1
  45 0008 62B6     		CPSIE   i
  46              	@ 0 "" 2
  25:main.c        ****     
  26:main.c        ****     UART_Start();
  47              		.loc 1 26 0
  48              		.thumb
  49              		.syntax unified
  50 000a FFF7FEFF 		bl	UART_Start
  51              	.LVL0:
  27:main.c        ****     SPIM_Start(); 
  52              		.loc 1 27 0
  53 000e FFF7FEFF 		bl	SPIM_Start
  54              	.LVL1:
  28:main.c        ****     CyDelay(3000);
  55              		.loc 1 28 0
  56 0012 40F6B830 		movw	r0, #3000
  57 0016 FFF7FEFF 		bl	CyDelay
  58              	.LVL2:
  29:main.c        ****     SPIM_ClearRxBuffer();
  59              		.loc 1 29 0
  60 001a FFF7FEFF 		bl	SPIM_ClearRxBuffer
  61              	.LVL3:
  30:main.c        ****     SPIM_ClearTxBuffer();
  62              		.loc 1 30 0
  63 001e FFF7FEFF 		bl	SPIM_ClearTxBuffer
  64              	.LVL4:
  31:main.c        ****     
  32:main.c        ****     UART_PutString("UART started\r\n");
  65              		.loc 1 32 0
  66 0022 5648     		ldr	r0, .L17
  67 0024 FFF7FEFF 		bl	UART_PutString
  68              	.LVL5:
  33:main.c        ****     uint8_t data[DATA_SIZE];
  34:main.c        ****     int i=0;
  35:main.c        ****     uint16 addr = 0x0000;
  36:main.c        ****    
  37:main.c        ****     for(i=0;i<DATA_SIZE;i++){
  69              		.loc 1 37 0
  70 0028 0023     		movs	r3, #0
  71 002a 07E0     		b	.L2
  72              	.LVL6:
  73              	.L3:
  38:main.c        ****         data[i] = 0;
  74              		.loc 1 38 0 discriminator 3
  75 002c 0DF50042 		add	r2, sp, #32768
  76 0030 4032     		adds	r2, r2, #64
ARM GAS  C:\Users\annat\AppData\Local\Temp\cc9O2xHh.s 			page 3


  77 0032 1A44     		add	r2, r2, r3
  78 0034 0021     		movs	r1, #0
  79 0036 02F8401C 		strb	r1, [r2, #-64]
  37:main.c        ****         data[i] = 0;
  80              		.loc 1 37 0 discriminator 3
  81 003a 0133     		adds	r3, r3, #1
  82              	.LVL7:
  83              	.L2:
  37:main.c        ****         data[i] = 0;
  84              		.loc 1 37 0 is_stmt 0 discriminator 1
  85 003c 3F2B     		cmp	r3, #63
  86 003e F5DD     		ble	.L3
  39:main.c        ****     }
  40:main.c        ****     UART_PutString("Inizio scrittura :) \r\n");
  87              		.loc 1 40 0 is_stmt 1
  88 0040 4F48     		ldr	r0, .L17+4
  89 0042 FFF7FEFF 		bl	UART_PutString
  90              	.LVL8:
  41:main.c        ****     CyDelay(500);
  91              		.loc 1 41 0
  92 0046 4FF4FA70 		mov	r0, #500
  93 004a FFF7FEFF 		bl	CyDelay
  94              	.LVL9:
  35:main.c        ****    
  95              		.loc 1 35 0
  96 004e 0024     		movs	r4, #0
  42:main.c        ****     for(i=0; i<EEPROM_BYTES/64; i++){
  97              		.loc 1 42 0
  98 0050 2546     		mov	r5, r4
  99 0052 16E0     		b	.L4
 100              	.LVL10:
 101              	.L5:
  43:main.c        ****         EEPROM_writePage(addr, data, DATA_SIZE);
 102              		.loc 1 43 0 discriminator 3
 103 0054 4022     		movs	r2, #64
 104 0056 0DF50041 		add	r1, sp, #32768
 105 005a 2046     		mov	r0, r4
 106 005c FFF7FEFF 		bl	EEPROM_writePage
 107              	.LVL11:
  44:main.c        ****         EEPROM_waitForWriteComplete();
 108              		.loc 1 44 0 discriminator 3
 109 0060 FFF7FEFF 		bl	EEPROM_waitForWriteComplete
 110              	.LVL12:
  45:main.c        ****         CyDelay(10);
 111              		.loc 1 45 0 discriminator 3
 112 0064 0A20     		movs	r0, #10
 113 0066 FFF7FEFF 		bl	CyDelay
 114              	.LVL13:
  46:main.c        ****         sprintf(message,"Addr_write = 0x%x \r\n",addr);
 115              		.loc 1 46 0 discriminator 3
 116 006a 464E     		ldr	r6, .L17+8
 117 006c 2246     		mov	r2, r4
 118 006e 4649     		ldr	r1, .L17+12
 119 0070 3046     		mov	r0, r6
 120 0072 FFF7FEFF 		bl	sprintf
 121              	.LVL14:
  47:main.c        ****         UART_PutString(message);
ARM GAS  C:\Users\annat\AppData\Local\Temp\cc9O2xHh.s 			page 4


 122              		.loc 1 47 0 discriminator 3
 123 0076 3046     		mov	r0, r6
 124 0078 FFF7FEFF 		bl	UART_PutString
 125              	.LVL15:
  48:main.c        ****         addr+=64;
 126              		.loc 1 48 0 discriminator 3
 127 007c 4034     		adds	r4, r4, #64
 128              	.LVL16:
 129 007e A4B2     		uxth	r4, r4
 130              	.LVL17:
  42:main.c        ****         EEPROM_writePage(addr, data, DATA_SIZE);
 131              		.loc 1 42 0 discriminator 3
 132 0080 0135     		adds	r5, r5, #1
 133              	.LVL18:
 134              	.L4:
  42:main.c        ****         EEPROM_writePage(addr, data, DATA_SIZE);
 135              		.loc 1 42 0 is_stmt 0 discriminator 1
 136 0082 B5F5007F 		cmp	r5, #512
 137 0086 E5DB     		blt	.L5
  49:main.c        ****     }
  50:main.c        ****     
  51:main.c        ****     UART_PutString("All EEPROM cells initialized to 0 (ahahahahahaha)\r\n");
 138              		.loc 1 51 0 is_stmt 1
 139 0088 4048     		ldr	r0, .L17+16
 140 008a FFF7FEFF 		bl	UART_PutString
 141              	.LVL19:
  52:main.c        ****     CyDelay(500);
 142              		.loc 1 52 0
 143 008e 4FF4FA70 		mov	r0, #500
 144 0092 FFF7FEFF 		bl	CyDelay
 145              	.LVL20:
  53:main.c        ****     
  54:main.c        ****     uint16 addr_read = 0x0000;
  55:main.c        ****     uint8_t data_read[EEPROM_BYTES];
  56:main.c        ****     
  57:main.c        ****     UART_PutString("scrivo tutti 3 in data read :) \r\n");
 146              		.loc 1 57 0
 147 0096 3E48     		ldr	r0, .L17+20
 148 0098 FFF7FEFF 		bl	UART_PutString
 149              	.LVL21:
  58:main.c        ****     for (i=0;i<EEPROM_BYTES;i++){
 150              		.loc 1 58 0
 151 009c 0023     		movs	r3, #0
 152 009e 03E0     		b	.L6
 153              	.LVL22:
 154              	.L7:
  59:main.c        ****         data_read[i] = 3;
 155              		.loc 1 59 0 discriminator 3
 156 00a0 0322     		movs	r2, #3
 157 00a2 0DF80320 		strb	r2, [sp, r3]
  58:main.c        ****     for (i=0;i<EEPROM_BYTES;i++){
 158              		.loc 1 58 0 discriminator 3
 159 00a6 0133     		adds	r3, r3, #1
 160              	.LVL23:
 161              	.L6:
  58:main.c        ****     for (i=0;i<EEPROM_BYTES;i++){
 162              		.loc 1 58 0 is_stmt 0 discriminator 1
ARM GAS  C:\Users\annat\AppData\Local\Temp\cc9O2xHh.s 			page 5


 163 00a8 B3F5004F 		cmp	r3, #32768
 164 00ac F8DB     		blt	.L7
  60:main.c        ****     }
  61:main.c        ****     UART_PutString("fattooooooooo\r\n");
 165              		.loc 1 61 0 is_stmt 1
 166 00ae 3948     		ldr	r0, .L17+24
 167 00b0 FFF7FEFF 		bl	UART_PutString
 168              	.LVL24:
  62:main.c        ****     CyDelay(500);
 169              		.loc 1 62 0
 170 00b4 4FF4FA70 		mov	r0, #500
 171 00b8 FFF7FEFF 		bl	CyDelay
 172              	.LVL25:
  63:main.c        ****     
  64:main.c        ****     UART_PutString("Inizio lettura\r\n");
 173              		.loc 1 64 0
 174 00bc 3648     		ldr	r0, .L17+28
 175 00be FFF7FEFF 		bl	UART_PutString
 176              	.LVL26:
  54:main.c        ****     uint8_t data_read[EEPROM_BYTES];
 177              		.loc 1 54 0
 178 00c2 0024     		movs	r4, #0
 179              	.LVL27:
  65:main.c        ****     for(i=0;i<EEPROM_BYTES/64;i++){    
 180              		.loc 1 65 0
 181 00c4 2546     		mov	r5, r4
 182 00c6 14E0     		b	.L8
 183              	.LVL28:
 184              	.L9:
  66:main.c        ****     EEPROM_readPage(addr_read,&data_read[addr_read],DATA_SIZE);
 185              		.loc 1 66 0 discriminator 3
 186 00c8 4022     		movs	r2, #64
 187 00ca 0DEB0401 		add	r1, sp, r4
 188 00ce 2046     		mov	r0, r4
 189 00d0 FFF7FEFF 		bl	EEPROM_readPage
 190              	.LVL29:
  67:main.c        ****     CyDelay(10);
 191              		.loc 1 67 0 discriminator 3
 192 00d4 0A20     		movs	r0, #10
 193 00d6 FFF7FEFF 		bl	CyDelay
 194              	.LVL30:
  68:main.c        ****     addr_read+=64;
 195              		.loc 1 68 0 discriminator 3
 196 00da 4034     		adds	r4, r4, #64
 197              	.LVL31:
 198 00dc A4B2     		uxth	r4, r4
 199              	.LVL32:
  69:main.c        ****     sprintf(message,"Addr_read = %x \r\n",addr_read);
 200              		.loc 1 69 0 discriminator 3
 201 00de 294E     		ldr	r6, .L17+8
 202 00e0 2246     		mov	r2, r4
 203 00e2 2E49     		ldr	r1, .L17+32
 204 00e4 3046     		mov	r0, r6
 205 00e6 FFF7FEFF 		bl	sprintf
 206              	.LVL33:
  70:main.c        ****     UART_PutString(message);
 207              		.loc 1 70 0 discriminator 3
ARM GAS  C:\Users\annat\AppData\Local\Temp\cc9O2xHh.s 			page 6


 208 00ea 3046     		mov	r0, r6
 209 00ec FFF7FEFF 		bl	UART_PutString
 210              	.LVL34:
  65:main.c        ****     EEPROM_readPage(addr_read,&data_read[addr_read],DATA_SIZE);
 211              		.loc 1 65 0 discriminator 3
 212 00f0 0135     		adds	r5, r5, #1
 213              	.LVL35:
 214              	.L8:
  65:main.c        ****     EEPROM_readPage(addr_read,&data_read[addr_read],DATA_SIZE);
 215              		.loc 1 65 0 is_stmt 0 discriminator 1
 216 00f2 B5F5007F 		cmp	r5, #512
 217 00f6 E7DB     		blt	.L9
  71:main.c        ****     }
  72:main.c        ****     
  73:main.c        ****     UART_PutString("Lettura finita");
 218              		.loc 1 73 0 is_stmt 1
 219 00f8 2948     		ldr	r0, .L17+36
 220 00fa FFF7FEFF 		bl	UART_PutString
 221              	.LVL36:
  74:main.c        ****     CyDelay(500);
 222              		.loc 1 74 0
 223 00fe 4FF4FA70 		mov	r0, #500
 224 0102 FFF7FEFF 		bl	CyDelay
 225              	.LVL37:
  75:main.c        ****     
  76:main.c        ****     addr_read = 0x0000;
  77:main.c        ****     int count = 1;
  78:main.c        ****     int count_zeri = 0;
  79:main.c        ****     UART_PutString("INIZIO A CONTROLLAREEEEEEEEEE");
 226              		.loc 1 79 0
 227 0106 2748     		ldr	r0, .L17+40
 228 0108 FFF7FEFF 		bl	UART_PutString
 229              	.LVL38:
  77:main.c        ****     int count_zeri = 0;
 230              		.loc 1 77 0
 231 010c 0125     		movs	r5, #1
  80:main.c        ****     for(i=0;i<EEPROM_BYTES;i++){
 232              		.loc 1 80 0
 233 010e 0024     		movs	r4, #0
 234 0110 27E0     		b	.L10
 235              	.LVL39:
 236              	.L14:
  81:main.c        ****         if(data_read[i] != 0){
 237              		.loc 1 81 0
 238 0112 1DF80430 		ldrb	r3, [sp, r4]	@ zero_extendqisi2
 239 0116 43B1     		cbz	r3, .L11
  82:main.c        ****             sprintf(message,"VALORE DIVERSO DA 0 NOOOOOOOO (CELLA 0x%x)\r\n",addr_read+i);
 240              		.loc 1 82 0
 241 0118 1A4E     		ldr	r6, .L17+8
 242 011a 2246     		mov	r2, r4
 243 011c 2249     		ldr	r1, .L17+44
 244 011e 3046     		mov	r0, r6
 245 0120 FFF7FEFF 		bl	sprintf
 246              	.LVL40:
  83:main.c        ****             UART_PutString(message);
 247              		.loc 1 83 0
 248 0124 3046     		mov	r0, r6
ARM GAS  C:\Users\annat\AppData\Local\Temp\cc9O2xHh.s 			page 7


 249 0126 FFF7FEFF 		bl	UART_PutString
 250              	.LVL41:
 251              	.L11:
  84:main.c        ****         }
  85:main.c        ****         
  86:main.c        ****         if(i % EEPROM_BYTES/10 == 0){
 252              		.loc 1 86 0
 253 012a 24F0FF43 		bic	r3, r4, #2139095040
 254 012e 23F4FF03 		bic	r3, r3, #8355840
 255 0132 002B     		cmp	r3, #0
 256 0134 05DA     		bge	.L12
 257 0136 013B     		subs	r3, r3, #1
 258 0138 6FEA4343 		mvn	r3, r3, lsl #17
 259 013c 6FEA5343 		mvn	r3, r3, lsr #17
 260 0140 0133     		adds	r3, r3, #1
 261              	.L12:
 262 0142 0933     		adds	r3, r3, #9
 263 0144 122B     		cmp	r3, #18
 264 0146 0BD8     		bhi	.L13
  87:main.c        ****             sprintf(message,"Sono al %d percentoooooooooooooooooooo :) \r\n",count*10);
 265              		.loc 1 87 0
 266 0148 05EB8503 		add	r3, r5, r5, lsl #2
 267 014c 5A00     		lsls	r2, r3, #1
 268 014e 0D4E     		ldr	r6, .L17+8
 269 0150 1649     		ldr	r1, .L17+48
 270 0152 3046     		mov	r0, r6
 271 0154 FFF7FEFF 		bl	sprintf
 272              	.LVL42:
  88:main.c        ****             UART_PutString(message);
 273              		.loc 1 88 0
 274 0158 3046     		mov	r0, r6
 275 015a FFF7FEFF 		bl	UART_PutString
 276              	.LVL43:
  89:main.c        ****             count++;
 277              		.loc 1 89 0
 278 015e 0135     		adds	r5, r5, #1
 279              	.LVL44:
 280              	.L13:
  80:main.c        ****         if(data_read[i] != 0){
 281              		.loc 1 80 0 discriminator 2
 282 0160 0134     		adds	r4, r4, #1
 283              	.LVL45:
 284              	.L10:
  80:main.c        ****         if(data_read[i] != 0){
 285              		.loc 1 80 0 is_stmt 0 discriminator 1
 286 0162 B4F5004F 		cmp	r4, #32768
 287 0166 D4DB     		blt	.L14
  90:main.c        ****         }
  91:main.c        ****     }
  92:main.c        ****     if(count_zeri == 0){
  93:main.c        ****         UART_PutString("SONO TUTTI A 0 HO LA EEPROM ROTTA IMPAZZISCO\r\n");
 288              		.loc 1 93 0 is_stmt 1
 289 0168 1148     		ldr	r0, .L17+52
 290 016a FFF7FEFF 		bl	UART_PutString
 291              	.LVL46:
  94:main.c        ****     }
  95:main.c        ****     else{
ARM GAS  C:\Users\annat\AppData\Local\Temp\cc9O2xHh.s 			page 8


  96:main.c        ****         UART_PutString("NON SONO TUTTI 0 :( \r\n");
  97:main.c        ****     }
  98:main.c        ****     CyDelay(10);
 292              		.loc 1 98 0
 293 016e 0A20     		movs	r0, #10
 294 0170 FFF7FEFF 		bl	CyDelay
 295              	.LVL47:
  99:main.c        **** 
 100:main.c        ****     
 101:main.c        ****     UART_PutString("*************************************\r\n");
 296              		.loc 1 101 0
 297 0174 0F48     		ldr	r0, .L17+56
 298 0176 FFF7FEFF 		bl	UART_PutString
 299              	.LVL48:
 300              	.L15:
 301 017a FEE7     		b	.L15
 302              	.L18:
 303              		.align	2
 304              	.L17:
 305 017c 00000000 		.word	.LC0
 306 0180 10000000 		.word	.LC1
 307 0184 00000000 		.word	message
 308 0188 28000000 		.word	.LC2
 309 018c 40000000 		.word	.LC3
 310 0190 74000000 		.word	.LC4
 311 0194 98000000 		.word	.LC5
 312 0198 A8000000 		.word	.LC6
 313 019c BC000000 		.word	.LC7
 314 01a0 D0000000 		.word	.LC8
 315 01a4 E0000000 		.word	.LC9
 316 01a8 00010000 		.word	.LC10
 317 01ac 30010000 		.word	.LC11
 318 01b0 60010000 		.word	.LC12
 319 01b4 90010000 		.word	.LC13
 320              		.cfi_endproc
 321              	.LFE64:
 322              		.size	main, .-main
 323              		.comm	message,100,4
 324              		.section	.rodata.str1.4,"aMS",%progbits,1
 325              		.align	2
 326              	.LC0:
 327 0000 55415254 		.ascii	"UART started\015\012\000"
 327      20737461 
 327      72746564 
 327      0D0A00
 328 000f 00       		.space	1
 329              	.LC1:
 330 0010 496E697A 		.ascii	"Inizio scrittura :) \015\012\000"
 330      696F2073 
 330      63726974 
 330      74757261 
 330      203A2920 
 331 0027 00       		.space	1
 332              	.LC2:
 333 0028 41646472 		.ascii	"Addr_write = 0x%x \015\012\000"
 333      5F777269 
 333      7465203D 
ARM GAS  C:\Users\annat\AppData\Local\Temp\cc9O2xHh.s 			page 9


 333      20307825 
 333      78200D0A 
 334 003d 000000   		.space	3
 335              	.LC3:
 336 0040 416C6C20 		.ascii	"All EEPROM cells initialized to 0 (ahahahahahaha)\015"
 336      45455052 
 336      4F4D2063 
 336      656C6C73 
 336      20696E69 
 337 0072 0A00     		.ascii	"\012\000"
 338              	.LC4:
 339 0074 73637269 		.ascii	"scrivo tutti 3 in data read :) \015\012\000"
 339      766F2074 
 339      75747469 
 339      20332069 
 339      6E206461 
 340 0096 0000     		.space	2
 341              	.LC5:
 342 0098 66617474 		.ascii	"fattooooooooo\015\012\000"
 342      6F6F6F6F 
 342      6F6F6F6F 
 342      6F0D0A00 
 343              	.LC6:
 344 00a8 496E697A 		.ascii	"Inizio lettura\015\012\000"
 344      696F206C 
 344      65747475 
 344      72610D0A 
 344      00
 345 00b9 000000   		.space	3
 346              	.LC7:
 347 00bc 41646472 		.ascii	"Addr_read = %x \015\012\000"
 347      5F726561 
 347      64203D20 
 347      2578200D 
 347      0A00
 348 00ce 0000     		.space	2
 349              	.LC8:
 350 00d0 4C657474 		.ascii	"Lettura finita\000"
 350      75726120 
 350      66696E69 
 350      746100
 351 00df 00       		.space	1
 352              	.LC9:
 353 00e0 494E495A 		.ascii	"INIZIO A CONTROLLAREEEEEEEEEE\000"
 353      494F2041 
 353      20434F4E 
 353      54524F4C 
 353      4C415245 
 354 00fe 0000     		.space	2
 355              	.LC10:
 356 0100 56414C4F 		.ascii	"VALORE DIVERSO DA 0 NOOOOOOOO (CELLA 0x%x)\015\012\000"
 356      52452044 
 356      49564552 
 356      534F2044 
 356      41203020 
 357 012d 000000   		.space	3
 358              	.LC11:
ARM GAS  C:\Users\annat\AppData\Local\Temp\cc9O2xHh.s 			page 10


 359 0130 536F6E6F 		.ascii	"Sono al %d percentoooooooooooooooooooo :) \015\012\000"
 359      20616C20 
 359      25642070 
 359      65726365 
 359      6E746F6F 
 360 015d 000000   		.space	3
 361              	.LC12:
 362 0160 534F4E4F 		.ascii	"SONO TUTTI A 0 HO LA EEPROM ROTTA IMPAZZISCO\015\012"
 362      20545554 
 362      54492041 
 362      20302048 
 362      4F204C41 
 363 018e 00       		.ascii	"\000"
 364 018f 00       		.space	1
 365              	.LC13:
 366 0190 2A2A2A2A 		.ascii	"*************************************\015\012\000"
 366      2A2A2A2A 
 366      2A2A2A2A 
 366      2A2A2A2A 
 366      2A2A2A2A 
 367              		.text
 368              	.Letext0:
 369              		.file 2 "c:\\program files (x86)\\cypress\\psoc creator\\4.3\\psoc creator\\import\\gnu\\arm\\5.4.
 370              		.file 3 "c:\\program files (x86)\\cypress\\psoc creator\\4.3\\psoc creator\\import\\gnu\\arm\\5.4.
 371              		.file 4 "Generated_Source\\PSoC5/cytypes.h"
 372              		.file 5 "Generated_Source\\PSoC5/core_cm3.h"
 373              		.file 6 "Generated_Source\\PSoC5/UART.h"
 374              		.file 7 "Generated_Source\\PSoC5/SPIM.h"
 375              		.file 8 "Generated_Source\\PSoC5/CyLib.h"
 376              		.file 9 "25LC256.h"
 377              		.file 10 "c:\\program files (x86)\\cypress\\psoc creator\\4.3\\psoc creator\\import\\gnu\\arm\\5.4