ARM GAS  C:\Users\Vanessa Aloia.Vanessa\AppData\Local\Temp\ccPBps7t.s 			page 1


   1              		.syntax unified
   2              		.cpu cortex-m3
   3              		.fpu softvfp
   4              		.eabi_attribute 20, 1
   5              		.eabi_attribute 21, 1
   6              		.eabi_attribute 23, 3
   7              		.eabi_attribute 24, 1
   8              		.eabi_attribute 25, 1
   9              		.eabi_attribute 26, 1
  10              		.eabi_attribute 30, 1
  11              		.eabi_attribute 34, 1
  12              		.eabi_attribute 18, 4
  13              		.thumb
  14              		.syntax unified
  15              		.file	"ConfigurationMenu.c"
  16              		.text
  17              	.Ltext0:
  18              		.cfi_sections	.debug_frame
  19              		.section	.text.Menu_edge,"ax",%progbits
  20              		.align	2
  21              		.global	Menu_edge
  22              		.thumb
  23              		.thumb_func
  24              		.type	Menu_edge, %function
  25              	Menu_edge:
  26              	.LFB68:
  27              		.file 1 "ConfigurationMenu.c"
   1:ConfigurationMenu.c **** /* ========================================
   2:ConfigurationMenu.c ****  *
   3:ConfigurationMenu.c ****  * Copyright YOUR COMPANY, THE YEAR
   4:ConfigurationMenu.c ****  * All Rights Reserved
   5:ConfigurationMenu.c ****  * UNPUBLISHED, LICENSED SOFTWARE.
   6:ConfigurationMenu.c ****  *
   7:ConfigurationMenu.c ****  * CONFIDENTIAL AND PROPRIETARY INFORMATION
   8:ConfigurationMenu.c ****  * WHICH IS THE PROPERTY OF your company.
   9:ConfigurationMenu.c ****  *
  10:ConfigurationMenu.c ****  * ========================================
  11:ConfigurationMenu.c **** */
  12:ConfigurationMenu.c **** #include "ConfigurationMenu.h"
  13:ConfigurationMenu.c **** #include "OptionsToBeDisplayed.h"
  14:ConfigurationMenu.c **** 
  15:ConfigurationMenu.c **** 
  16:ConfigurationMenu.c **** char message [LENGTH_MEX];
  17:ConfigurationMenu.c **** 
  18:ConfigurationMenu.c **** 
  19:ConfigurationMenu.c ****  
  20:ConfigurationMenu.c **** 
  21:ConfigurationMenu.c **** /* Menu displayed to the user while the system is running. Actual configuration of the acceleromete
  22:ConfigurationMenu.c **** * \and temperature sensor are shown. Keyboard commands to change settings for the acquisition,
  23:ConfigurationMenu.c **** * \to visualize data or to stop the visualization of data are indicated
  24:ConfigurationMenu.c **** */
  25:ConfigurationMenu.c **** 
  26:ConfigurationMenu.c **** void While_Working_Menu(void)
  27:ConfigurationMenu.c **** {   
  28:ConfigurationMenu.c ****     
  29:ConfigurationMenu.c ****     Menu_edge();
  30:ConfigurationMenu.c ****     /* !!DATA TO BE INSERTED */
ARM GAS  C:\Users\Vanessa Aloia.Vanessa\AppData\Local\Temp\ccPBps7t.s 			page 2


  31:ConfigurationMenu.c ****     
  32:ConfigurationMenu.c ****     /* if the system is acquiring data */
  33:ConfigurationMenu.c ****     if(1/* the flag start/stop is in start*/) 
  34:ConfigurationMenu.c ****     {
  35:ConfigurationMenu.c ****         sprintf(message, "Ongoing data acquisition... \r\n\n");
  36:ConfigurationMenu.c ****         UART_PutString(message);
  37:ConfigurationMenu.c ****     }
  38:ConfigurationMenu.c ****     /* if the acquisition has been stopped */
  39:ConfigurationMenu.c ****     else 
  40:ConfigurationMenu.c ****     {
  41:ConfigurationMenu.c ****         sprintf(message, "Data acquisition stopped \r\n\n");
  42:ConfigurationMenu.c ****         UART_PutString(message);
  43:ConfigurationMenu.c ****     }
  44:ConfigurationMenu.c ****         
  45:ConfigurationMenu.c ****     /* !!DATA TO BE INSERTED */ 
  46:ConfigurationMenu.c ****     
  47:ConfigurationMenu.c ****     /* Accelerometer acquisition configuration displayed */
  48:ConfigurationMenu.c ****     sprintf(message, "Current accelerometer acquisition configuration:\r\nFull scale range: %d\r\nS
  49:ConfigurationMenu.c ****     UART_PutString(message);
  50:ConfigurationMenu.c ****     
  51:ConfigurationMenu.c ****     /* !!DATA TO BE INSERTED */ 
  52:ConfigurationMenu.c ****     
  53:ConfigurationMenu.c ****     /* Temperature sensor acquisition configuration displayed */
  54:ConfigurationMenu.c ****     sprintf(message, "Temperature sensor data format:\r\n%s\r\n\n", (1==1)? "Fahrenheit" : "Celsius
  55:ConfigurationMenu.c ****     UART_PutString(message);
  56:ConfigurationMenu.c ****     
  57:ConfigurationMenu.c ****     /* Keyboard commands to change configuation and to handle data visualization */
  58:ConfigurationMenu.c ****     sprintf(message, "Press '?' to change the configuration settings for data acquisition\r\nPress 
  59:ConfigurationMenu.c ****     UART_PutString(message);
  60:ConfigurationMenu.c ****     
  61:ConfigurationMenu.c ****     Menu_edge();
  62:ConfigurationMenu.c **** }
  63:ConfigurationMenu.c **** 
  64:ConfigurationMenu.c **** /* when the user presses 'v' this message is displayed to inform to switch to Bridge control panel 
  65:ConfigurationMenu.c **** void Switch_to_BridgeControlPanel(void)
  66:ConfigurationMenu.c **** {
  67:ConfigurationMenu.c ****     Menu_edge();
  68:ConfigurationMenu.c ****     /* !! DATA TO BE INSERTED */
  69:ConfigurationMenu.c ****     sprintf(message, "Data will be displayed in %d seconds. Open Bridge Control Panel\n\n",1);
  70:ConfigurationMenu.c ****     UART_PutString(message);
  71:ConfigurationMenu.c ****     Menu_edge();
  72:ConfigurationMenu.c **** }
  73:ConfigurationMenu.c **** 
  74:ConfigurationMenu.c **** /* Function that displays the correct table depending on which parameter the user wants to change.
  75:ConfigurationMenu.c **** * \This information is contained in option_table global variable The first time that the function i
  76:ConfigurationMenu.c **** * \the array set_of tables is initialized.
  77:ConfigurationMenu.c **** * \ set_of_tables[0] contains the struct with the information to display related with the accelerom
  78:ConfigurationMenu.c **** * \ set_of tables[1] contains the struct with the information to display reòated with the accelero
  79:ConfigurationMenu.c **** * \ set_of tables[2] contains the struct with the information to display related with the unit of m
  80:ConfigurationMenu.c **** * \ A pointer is defined and associanted with the first cell memory of the variable header1 of the 
  81:ConfigurationMenu.c **** * \ The elements of the struct are printed though a foor loop using the pointer.
  82:ConfigurationMenu.c **** */
  83:ConfigurationMenu.c **** 
  84:ConfigurationMenu.c **** void Show_table(char index_table) 
  85:ConfigurationMenu.c **** {   
  86:ConfigurationMenu.c ****     
  87:ConfigurationMenu.c ****     uint8_t i;
ARM GAS  C:\Users\Vanessa Aloia.Vanessa\AppData\Local\Temp\ccPBps7t.s 			page 3


  88:ConfigurationMenu.c ****     uint8_t start;
  89:ConfigurationMenu.c ****     uint8_t stop;
  90:ConfigurationMenu.c ****     
  91:ConfigurationMenu.c ****     /* global variable "initialized" is set in main.c to 0. The first time that the function is cal
  92:ConfigurationMenu.c ****     * / is initialized and the variable "initialized" is set to 1
  93:ConfigurationMenu.c ****     */
  94:ConfigurationMenu.c ****     if( !initialized) {
  95:ConfigurationMenu.c ****         set_of_tables[0]= FSR;
  96:ConfigurationMenu.c ****         set_of_tables[1]= SampFreq;
  97:ConfigurationMenu.c ****         set_of_tables[2]= TempFormat;
  98:ConfigurationMenu.c ****         initialized=1;
  99:ConfigurationMenu.c ****     }
 100:ConfigurationMenu.c ****     /* pointer variable "index" points the memory cell of the first element of the struct related w
 101:ConfigurationMenu.c ****     char *index= (set_of_tables[0].header1);
 102:ConfigurationMenu.c ****     
 103:ConfigurationMenu.c ****     
 104:ConfigurationMenu.c ****     /* start variable is used in the for loop to define the initial memory cell pointed. 
 105:ConfigurationMenu.c ****     * \ header1 and header2 are printed before to enter in the for loop. The first cell to point is
 106:ConfigurationMenu.c ****     * \pointed by index
 107:ConfigurationMenu.c ****     */
 108:ConfigurationMenu.c ****     
 109:ConfigurationMenu.c ****     start= 2* WORD_SIZE;
 110:ConfigurationMenu.c ****     
 111:ConfigurationMenu.c ****     /* stop variable is used in the for loop to define the last memory cell pointed in the last cyc
 112:ConfigurationMenu.c ****     * \ if the paramter to change is the temperature data format just to options have to be display
 113:ConfigurationMenu.c ****     * \ So, in this case the last cell to be pointed is after 1+WORD_SIZE (key1 size+ option1 size)
 114:ConfigurationMenu.c ****     * \ In the other cases, the table is composed by 4 options so the last cell memory to be pointe
 115:ConfigurationMenu.c ****     */
 116:ConfigurationMenu.c ****     stop= (option_table == TEMP)? (start +(1+ WORD_SIZE +1)): (start + (1+WORD_SIZE)*3+1);
 117:ConfigurationMenu.c ****     Menu_edge();
 118:ConfigurationMenu.c ****     
 119:ConfigurationMenu.c ****     
 120:ConfigurationMenu.c ****     /* header1 and header2 of the correct table sent through UART */
 121:ConfigurationMenu.c ****     sprintf(message,"   %s | %s\r\n", index, index+WORD_SIZE);
 122:ConfigurationMenu.c ****     UART_PutString(message);
 123:ConfigurationMenu.c ****     
 124:ConfigurationMenu.c ****     /* in each cycle a row is printed (n-key = character) +( n-option = string) */
 125:ConfigurationMenu.c ****     for (i=start; i<stop; i+= (1+ WORD_SIZE))
 126:ConfigurationMenu.c ****     {
 127:ConfigurationMenu.c ****         sprintf(message, "       %c     |   %s\r\n", *(index+i) , index+i+1);
 128:ConfigurationMenu.c ****         UART_PutString( message);
 129:ConfigurationMenu.c ****     }  
 130:ConfigurationMenu.c ****     Menu_edge();
 131:ConfigurationMenu.c **** }
 132:ConfigurationMenu.c **** void Keys_menu (void) 
 133:ConfigurationMenu.c **** {
 134:ConfigurationMenu.c ****     Menu_edge();
 135:ConfigurationMenu.c ****     sprintf(message, "Press 'b' to start data acquisition and storage\r\n\n");
 136:ConfigurationMenu.c ****     UART_PutString(message);
 137:ConfigurationMenu.c ****     
 138:ConfigurationMenu.c ****     sprintf(message, "Press 's' to stop data acquisition and storage\r\n\n");
 139:ConfigurationMenu.c ****     UART_PutString(message);
 140:ConfigurationMenu.c ****     
 141:ConfigurationMenu.c ****     sprintf(message, "Press 'f' to change the accelerometer full scale range.Previous stored data w
 142:ConfigurationMenu.c ****     UART_PutString(message);
 143:ConfigurationMenu.c ****     
 144:ConfigurationMenu.c ****     sprintf(message, "Press 'p' to change the accelerometer sampling frequency.Previous data will b
ARM GAS  C:\Users\Vanessa Aloia.Vanessa\AppData\Local\Temp\ccPBps7t.s 			page 4


 145:ConfigurationMenu.c ****     UART_PutString(message);
 146:ConfigurationMenu.c ****     
 147:ConfigurationMenu.c ****     sprintf(message, "Press 't' to change the temperature data format\r\n\n");
 148:ConfigurationMenu.c ****     UART_PutString(message);
 149:ConfigurationMenu.c ****     
 150:ConfigurationMenu.c ****     sprintf(message, "Press 'q' to quit the menu\r\n\n");
 151:ConfigurationMenu.c ****     UART_PutString(message);
 152:ConfigurationMenu.c ****     Menu_edge();
 153:ConfigurationMenu.c **** }
 154:ConfigurationMenu.c **** 
 155:ConfigurationMenu.c **** void Menu_edge(void)
 156:ConfigurationMenu.c **** {
  28              		.loc 1 156 0
  29              		.cfi_startproc
  30              		@ args = 0, pretend = 0, frame = 0
  31              		@ frame_needed = 0, uses_anonymous_args = 0
  32 0000 F8B5     		push	{r3, r4, r5, r6, r7, lr}
  33              		.cfi_def_cfa_offset 24
  34              		.cfi_offset 3, -24
  35              		.cfi_offset 4, -20
  36              		.cfi_offset 5, -16
  37              		.cfi_offset 6, -12
  38              		.cfi_offset 7, -8
  39              		.cfi_offset 14, -4
 157:ConfigurationMenu.c ****     sprintf(message,"\r\n     ************************\r\n\n");
  40              		.loc 1 157 0
  41 0002 0B4E     		ldr	r6, .L4
  42 0004 0B4C     		ldr	r4, .L4+4
  43 0006 06F12007 		add	r7, r6, #32
  44              	.L2:
  45 000a 3546     		mov	r5, r6
  46 000c 0FCD     		ldmia	r5!, {r0, r1, r2, r3}
  47 000e 2060     		str	r0, [r4]	@ unaligned
  48 0010 6160     		str	r1, [r4, #4]	@ unaligned
  49 0012 A260     		str	r2, [r4, #8]	@ unaligned
  50 0014 E360     		str	r3, [r4, #12]	@ unaligned
  51 0016 2E46     		mov	r6, r5
  52 0018 1034     		adds	r4, r4, #16
  53 001a BD42     		cmp	r5, r7
  54 001c F5D1     		bne	.L2
  55 001e 2A88     		ldrh	r2, [r5]	@ unaligned
  56 0020 AB78     		ldrb	r3, [r5, #2]	@ zero_extendqisi2
  57 0022 2280     		strh	r2, [r4]	@ unaligned
  58 0024 A370     		strb	r3, [r4, #2]
 158:ConfigurationMenu.c ****     UART_PutString(message);
  59              		.loc 1 158 0
  60 0026 0348     		ldr	r0, .L4+4
  61 0028 FFF7FEFF 		bl	UART_PutString
  62              	.LVL0:
  63 002c F8BD     		pop	{r3, r4, r5, r6, r7, pc}
  64              	.L5:
  65 002e 00BF     		.align	2
  66              	.L4:
  67 0030 00000000 		.word	.LC0
  68 0034 00000000 		.word	message
  69              		.cfi_endproc
  70              	.LFE68:
ARM GAS  C:\Users\Vanessa Aloia.Vanessa\AppData\Local\Temp\ccPBps7t.s 			page 5


  71              		.size	Menu_edge, .-Menu_edge
  72              		.section	.text.While_Working_Menu,"ax",%progbits
  73              		.align	2
  74              		.global	While_Working_Menu
  75              		.thumb
  76              		.thumb_func
  77              		.type	While_Working_Menu, %function
  78              	While_Working_Menu:
  79              	.LFB64:
  27:ConfigurationMenu.c ****     
  80              		.loc 1 27 0
  81              		.cfi_startproc
  82              		@ args = 0, pretend = 0, frame = 0
  83              		@ frame_needed = 0, uses_anonymous_args = 0
  84 0000 38B5     		push	{r3, r4, r5, lr}
  85              		.cfi_def_cfa_offset 16
  86              		.cfi_offset 3, -16
  87              		.cfi_offset 4, -12
  88              		.cfi_offset 5, -8
  89              		.cfi_offset 14, -4
  29:ConfigurationMenu.c ****     /* !!DATA TO BE INSERTED */
  90              		.loc 1 29 0
  91 0002 FFF7FEFF 		bl	Menu_edge
  92              	.LVL1:
  35:ConfigurationMenu.c ****         UART_PutString(message);
  93              		.loc 1 35 0
  94 0006 154C     		ldr	r4, .L8
  95 0008 154D     		ldr	r5, .L8+4
  96 000a 0FCD     		ldmia	r5!, {r0, r1, r2, r3}
  97 000c 2060     		str	r0, [r4]	@ unaligned
  98 000e 6160     		str	r1, [r4, #4]	@ unaligned
  99 0010 A260     		str	r2, [r4, #8]	@ unaligned
 100 0012 E360     		str	r3, [r4, #12]	@ unaligned
 101 0014 0FCD     		ldmia	r5!, {r0, r1, r2, r3}
 102 0016 2061     		str	r0, [r4, #16]	@ unaligned
 103 0018 6161     		str	r1, [r4, #20]	@ unaligned
 104 001a A261     		str	r2, [r4, #24]	@ unaligned
 105 001c E361     		str	r3, [r4, #28]	@ unaligned
  36:ConfigurationMenu.c ****     }
 106              		.loc 1 36 0
 107 001e 2046     		mov	r0, r4
 108 0020 FFF7FEFF 		bl	UART_PutString
 109              	.LVL2:
  48:ConfigurationMenu.c ****     UART_PutString(message);
 110              		.loc 1 48 0
 111 0024 0223     		movs	r3, #2
 112 0026 0122     		movs	r2, #1
 113 0028 0E49     		ldr	r1, .L8+8
 114 002a 2046     		mov	r0, r4
 115 002c FFF7FEFF 		bl	sprintf
 116              	.LVL3:
  49:ConfigurationMenu.c ****     
 117              		.loc 1 49 0
 118 0030 2046     		mov	r0, r4
 119 0032 FFF7FEFF 		bl	UART_PutString
 120              	.LVL4:
  54:ConfigurationMenu.c ****     UART_PutString(message);
ARM GAS  C:\Users\Vanessa Aloia.Vanessa\AppData\Local\Temp\ccPBps7t.s 			page 6


 121              		.loc 1 54 0
 122 0036 0C4A     		ldr	r2, .L8+12
 123 0038 0C49     		ldr	r1, .L8+16
 124 003a 2046     		mov	r0, r4
 125 003c FFF7FEFF 		bl	sprintf
 126              	.LVL5:
  55:ConfigurationMenu.c ****     
 127              		.loc 1 55 0
 128 0040 2046     		mov	r0, r4
 129 0042 FFF7FEFF 		bl	UART_PutString
 130              	.LVL6:
  58:ConfigurationMenu.c ****     UART_PutString(message);
 131              		.loc 1 58 0
 132 0046 B422     		movs	r2, #180
 133 0048 0949     		ldr	r1, .L8+20
 134 004a 2046     		mov	r0, r4
 135 004c FFF7FEFF 		bl	memcpy
 136              	.LVL7:
  59:ConfigurationMenu.c ****     
 137              		.loc 1 59 0
 138 0050 2046     		mov	r0, r4
 139 0052 FFF7FEFF 		bl	UART_PutString
 140              	.LVL8:
  61:ConfigurationMenu.c **** }
 141              		.loc 1 61 0
 142 0056 FFF7FEFF 		bl	Menu_edge
 143              	.LVL9:
 144 005a 38BD     		pop	{r3, r4, r5, pc}
 145              	.L9:
 146              		.align	2
 147              	.L8:
 148 005c 00000000 		.word	message
 149 0060 24000000 		.word	.LC1
 150 0064 44000000 		.word	.LC2
 151 0068 A8000000 		.word	.LC3
 152 006c B4000000 		.word	.LC4
 153 0070 DC000000 		.word	.LC5
 154              		.cfi_endproc
 155              	.LFE64:
 156              		.size	While_Working_Menu, .-While_Working_Menu
 157              		.section	.text.Switch_to_BridgeControlPanel,"ax",%progbits
 158              		.align	2
 159              		.global	Switch_to_BridgeControlPanel
 160              		.thumb
 161              		.thumb_func
 162              		.type	Switch_to_BridgeControlPanel, %function
 163              	Switch_to_BridgeControlPanel:
 164              	.LFB65:
  66:ConfigurationMenu.c ****     Menu_edge();
 165              		.loc 1 66 0
 166              		.cfi_startproc
 167              		@ args = 0, pretend = 0, frame = 0
 168              		@ frame_needed = 0, uses_anonymous_args = 0
 169 0000 10B5     		push	{r4, lr}
 170              		.cfi_def_cfa_offset 8
 171              		.cfi_offset 4, -8
 172              		.cfi_offset 14, -4
ARM GAS  C:\Users\Vanessa Aloia.Vanessa\AppData\Local\Temp\ccPBps7t.s 			page 7


  67:ConfigurationMenu.c ****     /* !! DATA TO BE INSERTED */
 173              		.loc 1 67 0
 174 0002 FFF7FEFF 		bl	Menu_edge
 175              	.LVL10:
  69:ConfigurationMenu.c ****     UART_PutString(message);
 176              		.loc 1 69 0
 177 0006 064C     		ldr	r4, .L12
 178 0008 0122     		movs	r2, #1
 179 000a 0649     		ldr	r1, .L12+4
 180 000c 2046     		mov	r0, r4
 181 000e FFF7FEFF 		bl	sprintf
 182              	.LVL11:
  70:ConfigurationMenu.c ****     Menu_edge();
 183              		.loc 1 70 0
 184 0012 2046     		mov	r0, r4
 185 0014 FFF7FEFF 		bl	UART_PutString
 186              	.LVL12:
  71:ConfigurationMenu.c **** }
 187              		.loc 1 71 0
 188 0018 FFF7FEFF 		bl	Menu_edge
 189              	.LVL13:
 190 001c 10BD     		pop	{r4, pc}
 191              	.L13:
 192 001e 00BF     		.align	2
 193              	.L12:
 194 0020 00000000 		.word	message
 195 0024 90010000 		.word	.LC6
 196              		.cfi_endproc
 197              	.LFE65:
 198              		.size	Switch_to_BridgeControlPanel, .-Switch_to_BridgeControlPanel
 199              		.section	.text.Show_table,"ax",%progbits
 200              		.align	2
 201              		.global	Show_table
 202              		.thumb
 203              		.thumb_func
 204              		.type	Show_table, %function
 205              	Show_table:
 206              	.LFB66:
  85:ConfigurationMenu.c ****     
 207              		.loc 1 85 0
 208              		.cfi_startproc
 209              		@ args = 0, pretend = 0, frame = 0
 210              		@ frame_needed = 0, uses_anonymous_args = 0
 211              	.LVL14:
 212 0000 70B5     		push	{r4, r5, r6, lr}
 213              		.cfi_def_cfa_offset 16
 214              		.cfi_offset 4, -16
 215              		.cfi_offset 5, -12
 216              		.cfi_offset 6, -8
 217              		.cfi_offset 14, -4
  94:ConfigurationMenu.c ****         set_of_tables[0]= FSR;
 218              		.loc 1 94 0
 219 0002 214B     		ldr	r3, .L21
 220 0004 1B78     		ldrb	r3, [r3]	@ zero_extendqisi2
 221 0006 B3B9     		cbnz	r3, .L15
  95:ConfigurationMenu.c ****         set_of_tables[1]= SampFreq;
 222              		.loc 1 95 0
ARM GAS  C:\Users\Vanessa Aloia.Vanessa\AppData\Local\Temp\ccPBps7t.s 			page 8


 223 0008 204C     		ldr	r4, .L21+4
 224 000a 214D     		ldr	r5, .L21+8
 225 000c 7C26     		movs	r6, #124
 226 000e 3246     		mov	r2, r6
 227 0010 2946     		mov	r1, r5
 228 0012 2046     		mov	r0, r4
 229              	.LVL15:
 230 0014 FFF7FEFF 		bl	memcpy
 231              	.LVL16:
  96:ConfigurationMenu.c ****         set_of_tables[2]= TempFormat;
 232              		.loc 1 96 0
 233 0018 3246     		mov	r2, r6
 234 001a A919     		adds	r1, r5, r6
 235 001c A019     		adds	r0, r4, r6
 236 001e FFF7FEFF 		bl	memcpy
 237              	.LVL17:
  97:ConfigurationMenu.c ****         initialized=1;
 238              		.loc 1 97 0
 239 0022 3246     		mov	r2, r6
 240 0024 05F1F801 		add	r1, r5, #248
 241 0028 04F1F800 		add	r0, r4, #248
 242 002c FFF7FEFF 		bl	memcpy
 243              	.LVL18:
  98:ConfigurationMenu.c ****     }
 244              		.loc 1 98 0
 245 0030 0122     		movs	r2, #1
 246 0032 154B     		ldr	r3, .L21
 247 0034 1A70     		strb	r2, [r3]
 248              	.L15:
 249              	.LVL19:
 116:ConfigurationMenu.c ****     Menu_edge();
 250              		.loc 1 116 0
 251 0036 174B     		ldr	r3, .L21+12
 252 0038 1B78     		ldrb	r3, [r3]	@ zero_extendqisi2
 253 003a 022B     		cmp	r3, #2
 254 003c 01D1     		bne	.L19
 255 003e 3E26     		movs	r6, #62
 256 0040 00E0     		b	.L16
 257              	.L19:
 258 0042 6826     		movs	r6, #104
 259              	.L16:
 260              	.LVL20:
 117:ConfigurationMenu.c ****     
 261              		.loc 1 117 0 discriminator 4
 262 0044 FFF7FEFF 		bl	Menu_edge
 263              	.LVL21:
 121:ConfigurationMenu.c ****     UART_PutString(message);
 264              		.loc 1 121 0 discriminator 4
 265 0048 134A     		ldr	r2, .L21+16
 266 004a 144C     		ldr	r4, .L21+20
 267 004c 1346     		mov	r3, r2
 268 004e 143A     		subs	r2, r2, #20
 269 0050 1349     		ldr	r1, .L21+24
 270 0052 2046     		mov	r0, r4
 271 0054 FFF7FEFF 		bl	sprintf
 272              	.LVL22:
 122:ConfigurationMenu.c ****     
ARM GAS  C:\Users\Vanessa Aloia.Vanessa\AppData\Local\Temp\ccPBps7t.s 			page 9


 273              		.loc 1 122 0 discriminator 4
 274 0058 2046     		mov	r0, r4
 275 005a FFF7FEFF 		bl	UART_PutString
 276              	.LVL23:
 125:ConfigurationMenu.c ****     {
 277              		.loc 1 125 0 discriminator 4
 278 005e 2824     		movs	r4, #40
 279 0060 0DE0     		b	.L17
 280              	.LVL24:
 281              	.L18:
 127:ConfigurationMenu.c ****         UART_PutString( message);
 282              		.loc 1 127 0 discriminator 3
 283 0062 0A4A     		ldr	r2, .L21+4
 284 0064 631C     		adds	r3, r4, #1
 285 0066 0D4D     		ldr	r5, .L21+20
 286 0068 1344     		add	r3, r3, r2
 287 006a 125D     		ldrb	r2, [r2, r4]	@ zero_extendqisi2
 288 006c 0D49     		ldr	r1, .L21+28
 289 006e 2846     		mov	r0, r5
 290 0070 FFF7FEFF 		bl	sprintf
 291              	.LVL25:
 128:ConfigurationMenu.c ****     }  
 292              		.loc 1 128 0 discriminator 3
 293 0074 2846     		mov	r0, r5
 294 0076 FFF7FEFF 		bl	UART_PutString
 295              	.LVL26:
 125:ConfigurationMenu.c ****     {
 296              		.loc 1 125 0 discriminator 3
 297 007a 1534     		adds	r4, r4, #21
 298              	.LVL27:
 299 007c E4B2     		uxtb	r4, r4
 300              	.LVL28:
 301              	.L17:
 125:ConfigurationMenu.c ****     {
 302              		.loc 1 125 0 is_stmt 0 discriminator 1
 303 007e B442     		cmp	r4, r6
 304 0080 EFD3     		bcc	.L18
 130:ConfigurationMenu.c **** }
 305              		.loc 1 130 0 is_stmt 1
 306 0082 FFF7FEFF 		bl	Menu_edge
 307              	.LVL29:
 308 0086 70BD     		pop	{r4, r5, r6, pc}
 309              	.LVL30:
 310              	.L22:
 311              		.align	2
 312              	.L21:
 313 0088 00000000 		.word	initialized
 314 008c 00000000 		.word	set_of_tables
 315 0090 00000000 		.word	.LANCHOR0
 316 0094 00000000 		.word	option_table
 317 0098 14000000 		.word	set_of_tables+20
 318 009c 00000000 		.word	message
 319 00a0 D4010000 		.word	.LC7
 320 00a4 E4010000 		.word	.LC8
 321              		.cfi_endproc
 322              	.LFE66:
 323              		.size	Show_table, .-Show_table
ARM GAS  C:\Users\Vanessa Aloia.Vanessa\AppData\Local\Temp\ccPBps7t.s 			page 10


 324              		.section	.text.Keys_menu,"ax",%progbits
 325              		.align	2
 326              		.global	Keys_menu
 327              		.thumb
 328              		.thumb_func
 329              		.type	Keys_menu, %function
 330              	Keys_menu:
 331              	.LFB67:
 133:ConfigurationMenu.c ****     Menu_edge();
 332              		.loc 1 133 0
 333              		.cfi_startproc
 334              		@ args = 0, pretend = 0, frame = 0
 335              		@ frame_needed = 0, uses_anonymous_args = 0
 336 0000 F8B5     		push	{r3, r4, r5, r6, r7, lr}
 337              		.cfi_def_cfa_offset 24
 338              		.cfi_offset 3, -24
 339              		.cfi_offset 4, -20
 340              		.cfi_offset 5, -16
 341              		.cfi_offset 6, -12
 342              		.cfi_offset 7, -8
 343              		.cfi_offset 14, -4
 134:ConfigurationMenu.c ****     sprintf(message, "Press 'b' to start data acquisition and storage\r\n\n");
 344              		.loc 1 134 0
 345 0002 FFF7FEFF 		bl	Menu_edge
 346              	.LVL31:
 135:ConfigurationMenu.c ****     UART_PutString(message);
 347              		.loc 1 135 0
 348 0006 304E     		ldr	r6, .L28
 349 0008 304C     		ldr	r4, .L28+4
 350 000a 06F13007 		add	r7, r6, #48
 351              	.L24:
 352 000e 3546     		mov	r5, r6
 353 0010 0FCD     		ldmia	r5!, {r0, r1, r2, r3}
 354 0012 2060     		str	r0, [r4]	@ unaligned
 355 0014 6160     		str	r1, [r4, #4]	@ unaligned
 356 0016 A260     		str	r2, [r4, #8]	@ unaligned
 357 0018 E360     		str	r3, [r4, #12]	@ unaligned
 358 001a 2E46     		mov	r6, r5
 359 001c 1034     		adds	r4, r4, #16
 360 001e BD42     		cmp	r5, r7
 361 0020 F5D1     		bne	.L24
 362 0022 2A88     		ldrh	r2, [r5]	@ unaligned
 363 0024 AB78     		ldrb	r3, [r5, #2]	@ zero_extendqisi2
 364 0026 2280     		strh	r2, [r4]	@ unaligned
 365 0028 A370     		strb	r3, [r4, #2]
 136:ConfigurationMenu.c ****     
 366              		.loc 1 136 0
 367 002a 284C     		ldr	r4, .L28+4
 368 002c 2046     		mov	r0, r4
 369 002e FFF7FEFF 		bl	UART_PutString
 370              	.LVL32:
 138:ConfigurationMenu.c ****     UART_PutString(message);
 371              		.loc 1 138 0
 372 0032 274E     		ldr	r6, .L28+8
 373 0034 06F13007 		add	r7, r6, #48
 374              	.L25:
 375 0038 3546     		mov	r5, r6
ARM GAS  C:\Users\Vanessa Aloia.Vanessa\AppData\Local\Temp\ccPBps7t.s 			page 11


 376 003a 0FCD     		ldmia	r5!, {r0, r1, r2, r3}
 377 003c 2060     		str	r0, [r4]	@ unaligned
 378 003e 6160     		str	r1, [r4, #4]	@ unaligned
 379 0040 A260     		str	r2, [r4, #8]	@ unaligned
 380 0042 E360     		str	r3, [r4, #12]	@ unaligned
 381 0044 2E46     		mov	r6, r5
 382 0046 1034     		adds	r4, r4, #16
 383 0048 BD42     		cmp	r5, r7
 384 004a F5D1     		bne	.L25
 385 004c 2B88     		ldrh	r3, [r5]	@ unaligned
 386 004e 2380     		strh	r3, [r4]	@ unaligned
 139:ConfigurationMenu.c ****     
 387              		.loc 1 139 0
 388 0050 1E4C     		ldr	r4, .L28+4
 389 0052 2046     		mov	r0, r4
 390 0054 FFF7FEFF 		bl	UART_PutString
 391              	.LVL33:
 141:ConfigurationMenu.c ****     UART_PutString(message);
 392              		.loc 1 141 0
 393 0058 5F22     		movs	r2, #95
 394 005a 1E49     		ldr	r1, .L28+12
 395 005c 2046     		mov	r0, r4
 396 005e FFF7FEFF 		bl	memcpy
 397              	.LVL34:
 142:ConfigurationMenu.c ****     
 398              		.loc 1 142 0
 399 0062 2046     		mov	r0, r4
 400 0064 FFF7FEFF 		bl	UART_PutString
 401              	.LVL35:
 144:ConfigurationMenu.c ****     UART_PutString(message);
 402              		.loc 1 144 0
 403 0068 5A22     		movs	r2, #90
 404 006a 1B49     		ldr	r1, .L28+16
 405 006c 2046     		mov	r0, r4
 406 006e FFF7FEFF 		bl	memcpy
 407              	.LVL36:
 145:ConfigurationMenu.c ****     
 408              		.loc 1 145 0
 409 0072 2046     		mov	r0, r4
 410 0074 FFF7FEFF 		bl	UART_PutString
 411              	.LVL37:
 147:ConfigurationMenu.c ****     UART_PutString(message);
 412              		.loc 1 147 0
 413 0078 184E     		ldr	r6, .L28+20
 414 007a 06F13007 		add	r7, r6, #48
 415              	.L26:
 416 007e 3546     		mov	r5, r6
 417 0080 0FCD     		ldmia	r5!, {r0, r1, r2, r3}
 418 0082 2060     		str	r0, [r4]	@ unaligned
 419 0084 6160     		str	r1, [r4, #4]	@ unaligned
 420 0086 A260     		str	r2, [r4, #8]	@ unaligned
 421 0088 E360     		str	r3, [r4, #12]	@ unaligned
 422 008a 2E46     		mov	r6, r5
 423 008c 1034     		adds	r4, r4, #16
 424 008e BD42     		cmp	r5, r7
 425 0090 F5D1     		bne	.L26
 426 0092 2A88     		ldrh	r2, [r5]	@ unaligned
ARM GAS  C:\Users\Vanessa Aloia.Vanessa\AppData\Local\Temp\ccPBps7t.s 			page 12


 427 0094 AB78     		ldrb	r3, [r5, #2]	@ zero_extendqisi2
 428 0096 2280     		strh	r2, [r4]	@ unaligned
 429 0098 A370     		strb	r3, [r4, #2]
 148:ConfigurationMenu.c ****     
 430              		.loc 1 148 0
 431 009a 0C4D     		ldr	r5, .L28+4
 432 009c 2846     		mov	r0, r5
 433 009e FFF7FEFF 		bl	UART_PutString
 434              	.LVL38:
 150:ConfigurationMenu.c ****     UART_PutString(message);
 435              		.loc 1 150 0
 436 00a2 0F4C     		ldr	r4, .L28+24
 437 00a4 0FCC     		ldmia	r4!, {r0, r1, r2, r3}
 438 00a6 2860     		str	r0, [r5]	@ unaligned
 439 00a8 6960     		str	r1, [r5, #4]	@ unaligned
 440 00aa AA60     		str	r2, [r5, #8]	@ unaligned
 441 00ac EB60     		str	r3, [r5, #12]	@ unaligned
 442 00ae 07CC     		ldmia	r4!, {r0, r1, r2}
 443 00b0 2861     		str	r0, [r5, #16]	@ unaligned
 444 00b2 6961     		str	r1, [r5, #20]	@ unaligned
 445 00b4 AA61     		str	r2, [r5, #24]	@ unaligned
 446 00b6 2388     		ldrh	r3, [r4]	@ unaligned
 447 00b8 AB83     		strh	r3, [r5, #28]	@ unaligned
 151:ConfigurationMenu.c ****     Menu_edge();
 448              		.loc 1 151 0
 449 00ba 2846     		mov	r0, r5
 450 00bc FFF7FEFF 		bl	UART_PutString
 451              	.LVL39:
 152:ConfigurationMenu.c **** }
 452              		.loc 1 152 0
 453 00c0 FFF7FEFF 		bl	Menu_edge
 454              	.LVL40:
 455 00c4 F8BD     		pop	{r3, r4, r5, r6, r7, pc}
 456              	.L29:
 457 00c6 00BF     		.align	2
 458              	.L28:
 459 00c8 FC010000 		.word	.LC9
 460 00cc 00000000 		.word	message
 461 00d0 40030000 		.word	.LC10
 462 00d4 30020000 		.word	.LC11
 463 00d8 90020000 		.word	.LC12
 464 00dc EC020000 		.word	.LC13
 465 00e0 20030000 		.word	.LC14
 466              		.cfi_endproc
 467              	.LFE67:
 468              		.size	Keys_menu, .-Keys_menu
 469              		.comm	message,50,4
 470              		.global	TempFormat
 471              		.global	SampFreq
 472              		.global	FSR
 473              		.comm	set_of_tables,372,4
 474              		.comm	initialized,1,1
 475              		.comm	option_table,1,1
 476              		.comm	start,1,1
 477              		.comm	change_settings_flag,1,1
 478              		.comm	FlagReady,1,1
 479              		.section	.rodata
ARM GAS  C:\Users\Vanessa Aloia.Vanessa\AppData\Local\Temp\ccPBps7t.s 			page 13


 480              		.align	2
 481              		.set	.LANCHOR0,. + 0
 482              		.type	FSR, %object
 483              		.size	FSR, 124
 484              	FSR:
 485 0000 43686172 		.ascii	"Character\000"
 485      61637465 
 485      7200
 486 000a 00000000 		.space	10
 486      00000000 
 486      0000
 487 0014 46756C6C 		.ascii	"Full scale range\000"
 487      20736361 
 487      6C652072 
 487      616E6765 
 487      00
 488 0025 000000   		.space	3
 489 0028 31       		.byte	49
 490 0029 2B2F2D20 		.ascii	"+/- 2g\000"
 490      326700
 491 0030 00000000 		.space	13
 491      00000000 
 491      00000000 
 491      00
 492 003d 32       		.byte	50
 493 003e 2B2F2D20 		.ascii	"+/- 4g\000"
 493      346700
 494 0045 00000000 		.space	13
 494      00000000 
 494      00000000 
 494      00
 495 0052 33       		.byte	51
 496 0053 2B2F2D20 		.ascii	"+/- 8g\000"
 496      386700
 497 005a 00000000 		.space	13
 497      00000000 
 497      00000000 
 497      00
 498 0067 34       		.byte	52
 499 0068 2B2F2D20 		.ascii	"+/- 16g\000"
 499      31366700 
 500 0070 00000000 		.space	12
 500      00000000 
 500      00000000 
 501              		.type	SampFreq, %object
 502              		.size	SampFreq, 124
 503              	SampFreq:
 504 007c 43686172 		.ascii	"Character\000"
 504      61637465 
 504      7200
 505 0086 00000000 		.space	10
 505      00000000 
 505      0000
 506 0090 53616D70 		.ascii	"Sampling Frequency\000"
 506      6C696E67 
 506      20467265 
 506      7175656E 
ARM GAS  C:\Users\Vanessa Aloia.Vanessa\AppData\Local\Temp\ccPBps7t.s 			page 14


 506      637900
 507 00a3 00       		.space	1
 508 00a4 31       		.byte	49
 509 00a5 3120487A 		.ascii	"1 Hz\000"
 509      00
 510 00aa 00000000 		.space	15
 510      00000000 
 510      00000000 
 510      000000
 511 00b9 32       		.byte	50
 512 00ba 31302048 		.ascii	"10 Hz\000"
 512      7A00
 513 00c0 00000000 		.space	14
 513      00000000 
 513      00000000 
 513      0000
 514 00ce 33       		.byte	51
 515 00cf 32352048 		.ascii	"25 Hz\000"
 515      7A00
 516 00d5 00000000 		.space	14
 516      00000000 
 516      00000000 
 516      0000
 517 00e3 34       		.byte	52
 518 00e4 35302048 		.ascii	"50 Hz\000"
 518      7A00
 519 00ea 00000000 		.space	14
 519      00000000 
 519      00000000 
 519      0000
 520              		.type	TempFormat, %object
 521              		.size	TempFormat, 124
 522              	TempFormat:
 523 00f8 43686172 		.ascii	"Character\000"
 523      61637465 
 523      7200
 524 0102 00000000 		.space	10
 524      00000000 
 524      0000
 525 010c 54656D70 		.ascii	"Temperature format\000"
 525      65726174 
 525      75726520 
 525      666F726D 
 525      617400
 526 011f 00       		.space	1
 527 0120 63       		.byte	99
 528 0121 43656C73 		.ascii	"Celsius\000"
 528      69757300 
 529 0129 00000000 		.space	12
 529      00000000 
 529      00000000 
 530 0135 66       		.byte	102
 531 0136 46616872 		.ascii	"Fahrenheit\000"
 531      656E6865 
 531      697400
 532 0141 00000000 		.space	9
 532      00000000 
ARM GAS  C:\Users\Vanessa Aloia.Vanessa\AppData\Local\Temp\ccPBps7t.s 			page 15


 532      00
 533 014a 20       		.byte	32
 534 014b 2000     		.ascii	" \000"
 535 014d 00000000 		.space	18
 535      00000000 
 535      00000000 
 535      00000000 
 535      0000
 536 015f 20       		.byte	32
 537 0160 2000     		.ascii	" \000"
 538 0162 00000000 		.space	18
 538      00000000 
 538      00000000 
 538      00000000 
 538      0000
 539              		.section	.rodata.str1.4,"aMS",%progbits,1
 540              		.align	2
 541              	.LC0:
 542 0000 0D0A2020 		.ascii	"\015\012     ************************\015\012\012\000"
 542      2020202A 
 542      2A2A2A2A 
 542      2A2A2A2A 
 542      2A2A2A2A 
 543 0023 00       		.space	1
 544              	.LC1:
 545 0024 4F6E676F 		.ascii	"Ongoing data acquisition... \015\012\012\000"
 545      696E6720 
 545      64617461 
 545      20616371 
 545      75697369 
 546              	.LC2:
 547 0044 43757272 		.ascii	"Current accelerometer acquisition configuration:\015"
 547      656E7420 
 547      61636365 
 547      6C65726F 
 547      6D657465 
 548 0075 0A46756C 		.ascii	"\012Full scale range: %d\015\012Sampling frequency:"
 548      6C207363 
 548      616C6520 
 548      72616E67 
 548      653A2025 
 549 009f 2025640D 		.ascii	" %d\015\012\000"
 549      0A00
 550 00a5 000000   		.space	3
 551              	.LC3:
 552 00a8 46616872 		.ascii	"Fahrenheit\000"
 552      656E6865 
 552      697400
 553 00b3 00       		.space	1
 554              	.LC4:
 555 00b4 54656D70 		.ascii	"Temperature sensor data format:\015\012%s\015\012\012"
 555      65726174 
 555      75726520 
 555      73656E73 
 555      6F722064 
 556 00da 00       		.ascii	"\000"
 557 00db 00       		.space	1
ARM GAS  C:\Users\Vanessa Aloia.Vanessa\AppData\Local\Temp\ccPBps7t.s 			page 16


 558              	.LC5:
 559 00dc 50726573 		.ascii	"Press '?' to change the configuration settings for "
 559      7320273F 
 559      2720746F 
 559      20636861 
 559      6E676520 
 560 010f 64617461 		.ascii	"data acquisition\015\012Press 'v' to visualize data"
 560      20616371 
 560      75697369 
 560      74696F6E 
 560      0D0A5072 
 561 013c 20284461 		.ascii	" (Data acquisition will be stopped)\015\012Press 'u"
 561      74612061 
 561      63717569 
 561      73697469 
 561      6F6E2077 
 562 0169 2720746F 		.ascii	"' to stop the visualization of data\015\012\012\000"
 562      2073746F 
 562      70207468 
 562      65207669 
 562      7375616C 
 563              	.LC6:
 564 0190 44617461 		.ascii	"Data will be displayed in %d seconds. Open Bridge C"
 564      2077696C 
 564      6C206265 
 564      20646973 
 564      706C6179 
 565 01c3 6F6E7472 		.ascii	"ontrol Panel\012\012\000"
 565      6F6C2050 
 565      616E656C 
 565      0A0A00
 566 01d2 0000     		.space	2
 567              	.LC7:
 568 01d4 20202025 		.ascii	"   %s | %s\015\012\000"
 568      73207C20 
 568      25730D0A 
 568      00
 569 01e1 000000   		.space	3
 570              	.LC8:
 571 01e4 20202020 		.ascii	"       %c     |   %s\015\012\000"
 571      20202025 
 571      63202020 
 571      20207C20 
 571      20202573 
 572 01fb 00       		.space	1
 573              	.LC9:
 574 01fc 50726573 		.ascii	"Press 'b' to start data acquisition and storage\015"
 574      73202762 
 574      2720746F 
 574      20737461 
 574      72742064 
 575 022c 0A0A00   		.ascii	"\012\012\000"
 576 022f 00       		.space	1
 577              	.LC11:
 578 0230 50726573 		.ascii	"Press 'f' to change the accelerometer full scale ra"
 578      73202766 
 578      2720746F 
ARM GAS  C:\Users\Vanessa Aloia.Vanessa\AppData\Local\Temp\ccPBps7t.s 			page 17


 578      20636861 
 578      6E676520 
 579 0263 6E67652E 		.ascii	"nge.Previous stored data will be deleted\015\012\012"
 579      50726576 
 579      696F7573 
 579      2073746F 
 579      72656420 
 580 028e 00       		.ascii	"\000"
 581 028f 00       		.space	1
 582              	.LC12:
 583 0290 50726573 		.ascii	"Press 'p' to change the accelerometer sampling freq"
 583      73202770 
 583      2720746F 
 583      20636861 
 583      6E676520 
 584 02c3 75656E63 		.ascii	"uency.Previous data will be deleted\015\012\012\000"
 584      792E5072 
 584      6576696F 
 584      75732064 
 584      61746120 
 585 02ea 0000     		.space	2
 586              	.LC13:
 587 02ec 50726573 		.ascii	"Press 't' to change the temperature data format\015"
 587      73202774 
 587      2720746F 
 587      20636861 
 587      6E676520 
 588 031c 0A0A00   		.ascii	"\012\012\000"
 589 031f 00       		.space	1
 590              	.LC14:
 591 0320 50726573 		.ascii	"Press 'q' to quit the menu\015\012\012\000"
 591      73202771 
 591      2720746F 
 591      20717569 
 591      74207468 
 592 033e 0000     		.space	2
 593              	.LC10:
 594 0340 50726573 		.ascii	"Press 's' to stop data acquisition and storage\015\012"
 594      73202773 
 594      2720746F 
 594      2073746F 
 594      70206461 
 595 0370 0A00     		.ascii	"\012\000"
 596              		.text
 597              	.Letext0:
 598              		.file 2 "c:\\program files (x86)\\cypress\\psoc creator\\4.3\\psoc creator\\import\\gnu\\arm\\5.4.
 599              		.file 3 "c:\\program files (x86)\\cypress\\psoc creator\\4.3\\psoc creator\\import\\gnu\\arm\\5.4.
 600              		.file 4 "Generated_Source\\PSoC5/cytypes.h"
 601              		.file 5 "ConfigurationMenu.h"
 602              		.file 6 "Generated_Source\\PSoC5/core_cm3.h"
 603              		.file 7 "InterruptRoutines.h"
 604              		.file 8 "OptionsToBeDisplayed.h"
 605              		.file 9 "Generated_Source\\PSoC5/UART.h"
 606              		.file 10 "c:\\program files (x86)\\cypress\\psoc creator\\4.3\\psoc creator\\import\\gnu\\arm\\5.4