ARM GAS  C:\Users\annat\AppData\Local\Temp\ccM32Xt9.s 			page 1


   1              		.syntax unified
   2              		.cpu cortex-m3
   3              		.fpu softvfp
   4              		.eabi_attribute 20, 1
   5              		.eabi_attribute 21, 1
   6              		.eabi_attribute 23, 3
   7              		.eabi_attribute 24, 1
   8              		.eabi_attribute 25, 1
   9              		.eabi_attribute 26, 1
  10              		.eabi_attribute 30, 1
  11              		.eabi_attribute 34, 1
  12              		.eabi_attribute 18, 4
  13              		.thumb
  14              		.syntax unified
  15              		.file	"I2C_Interface.c"
  16              		.text
  17              	.Ltext0:
  18              		.cfi_sections	.debug_frame
  19              		.section	.text.I2C_Peripheral_Start,"ax",%progbits
  20              		.align	2
  21              		.global	I2C_Peripheral_Start
  22              		.thumb
  23              		.thumb_func
  24              		.type	I2C_Peripheral_Start, %function
  25              	I2C_Peripheral_Start:
  26              	.LFB0:
  27              		.file 1 "I2C_Interface.c"
   1:I2C_Interface.c **** /* ========================================
   2:I2C_Interface.c ****  *
   3:I2C_Interface.c ****  * Copyright YOUR COMPANY, THE YEAR
   4:I2C_Interface.c ****  * All Rights Reserved
   5:I2C_Interface.c ****  * UNPUBLISHED, LICENSED SOFTWARE.
   6:I2C_Interface.c ****  *
   7:I2C_Interface.c ****  * CONFIDENTIAL AND PROPRIETARY INFORMATION
   8:I2C_Interface.c ****  * WHICH IS THE PROPERTY OF your company.
   9:I2C_Interface.c ****  *
  10:I2C_Interface.c ****  * ========================================
  11:I2C_Interface.c **** */
  12:I2C_Interface.c **** /*
  13:I2C_Interface.c **** * This file includes all the required source code to interface
  14:I2C_Interface.c **** * the I2C peripheral.
  15:I2C_Interface.c **** */
  16:I2C_Interface.c **** 
  17:I2C_Interface.c **** /*
  18:I2C_Interface.c **** *\ Value returned if device present on I2C bus.
  19:I2C_Interface.c **** */
  20:I2C_Interface.c **** #ifndef DEVICE_CONNECTED
  21:I2C_Interface.c ****     #define DEVICE_CONNECTED 1
  22:I2C_Interface.c **** #endif
  23:I2C_Interface.c **** 
  24:I2C_Interface.c **** /*
  25:I2C_Interface.c **** *\ Value returned if device is not present on I2C bus.
  26:I2C_Interface.c **** */
  27:I2C_Interface.c **** #ifndef DEVICE_UNCONNECTED
  28:I2C_Interface.c ****     #define DEVICE_UNCONNECTED 0
  29:I2C_Interface.c **** #endif
  30:I2C_Interface.c **** 
ARM GAS  C:\Users\annat\AppData\Local\Temp\ccM32Xt9.s 			page 2


  31:I2C_Interface.c **** 
  32:I2C_Interface.c **** #include "I2C_Interface.h" 
  33:I2C_Interface.c **** #include "I2C_Master.h"
  34:I2C_Interface.c **** 
  35:I2C_Interface.c ****     ErrorCode I2C_Peripheral_Start(void) 
  36:I2C_Interface.c ****     {
  28              		.loc 1 36 0
  29              		.cfi_startproc
  30              		@ args = 0, pretend = 0, frame = 0
  31              		@ frame_needed = 0, uses_anonymous_args = 0
  32 0000 08B5     		push	{r3, lr}
  33              		.cfi_def_cfa_offset 8
  34              		.cfi_offset 3, -8
  35              		.cfi_offset 14, -4
  37:I2C_Interface.c ****         /* Start I2C peripheral */
  38:I2C_Interface.c ****         I2C_Master_Start();  
  36              		.loc 1 38 0
  37 0002 FFF7FEFF 		bl	I2C_Master_Start
  38              	.LVL0:
  39:I2C_Interface.c ****         return NO_ERROR;
  40:I2C_Interface.c ****     }
  39              		.loc 1 40 0
  40 0006 0020     		movs	r0, #0
  41 0008 08BD     		pop	{r3, pc}
  42              		.cfi_endproc
  43              	.LFE0:
  44              		.size	I2C_Peripheral_Start, .-I2C_Peripheral_Start
  45 000a 00BF     		.section	.text.I2C_Peripheral_Stop,"ax",%progbits
  46              		.align	2
  47              		.global	I2C_Peripheral_Stop
  48              		.thumb
  49              		.thumb_func
  50              		.type	I2C_Peripheral_Stop, %function
  51              	I2C_Peripheral_Stop:
  52              	.LFB1:
  41:I2C_Interface.c ****     
  42:I2C_Interface.c ****     
  43:I2C_Interface.c ****     ErrorCode I2C_Peripheral_Stop(void)
  44:I2C_Interface.c ****     {
  53              		.loc 1 44 0
  54              		.cfi_startproc
  55              		@ args = 0, pretend = 0, frame = 0
  56              		@ frame_needed = 0, uses_anonymous_args = 0
  57 0000 08B5     		push	{r3, lr}
  58              		.cfi_def_cfa_offset 8
  59              		.cfi_offset 3, -8
  60              		.cfi_offset 14, -4
  45:I2C_Interface.c ****         /* Stop I2C peripheral */
  46:I2C_Interface.c ****         I2C_Master_Stop();
  61              		.loc 1 46 0
  62 0002 FFF7FEFF 		bl	I2C_Master_Stop
  63              	.LVL1:
  47:I2C_Interface.c ****         return NO_ERROR;
  48:I2C_Interface.c ****     }
  64              		.loc 1 48 0
  65 0006 0020     		movs	r0, #0
  66 0008 08BD     		pop	{r3, pc}
ARM GAS  C:\Users\annat\AppData\Local\Temp\ccM32Xt9.s 			page 3


  67              		.cfi_endproc
  68              	.LFE1:
  69              		.size	I2C_Peripheral_Stop, .-I2C_Peripheral_Stop
  70 000a 00BF     		.section	.text.I2C_Peripheral_ReadRegister,"ax",%progbits
  71              		.align	2
  72              		.global	I2C_Peripheral_ReadRegister
  73              		.thumb
  74              		.thumb_func
  75              		.type	I2C_Peripheral_ReadRegister, %function
  76              	I2C_Peripheral_ReadRegister:
  77              	.LFB2:
  49:I2C_Interface.c **** 
  50:I2C_Interface.c ****     ErrorCode I2C_Peripheral_ReadRegister(uint8_t device_address, 
  51:I2C_Interface.c ****                                             uint8_t register_address,
  52:I2C_Interface.c ****                                             uint8_t* data)
  53:I2C_Interface.c ****     {
  78              		.loc 1 53 0
  79              		.cfi_startproc
  80              		@ args = 0, pretend = 0, frame = 0
  81              		@ frame_needed = 0, uses_anonymous_args = 0
  82              	.LVL2:
  83 0000 F8B5     		push	{r3, r4, r5, r6, r7, lr}
  84              		.cfi_def_cfa_offset 24
  85              		.cfi_offset 3, -24
  86              		.cfi_offset 4, -20
  87              		.cfi_offset 5, -16
  88              		.cfi_offset 6, -12
  89              		.cfi_offset 7, -8
  90              		.cfi_offset 14, -4
  91 0002 0646     		mov	r6, r0
  92 0004 0D46     		mov	r5, r1
  93 0006 1746     		mov	r7, r2
  54:I2C_Interface.c ****         /* Send start condition */
  55:I2C_Interface.c ****         uint8_t error = I2C_Master_MasterSendStart(device_address,I2C_Master_WRITE_XFER_MODE);
  94              		.loc 1 55 0
  95 0008 0021     		movs	r1, #0
  96              	.LVL3:
  97 000a FFF7FEFF 		bl	I2C_Master_MasterSendStart
  98              	.LVL4:
  56:I2C_Interface.c ****         if (error == I2C_Master_MSTR_NO_ERROR)
  99              		.loc 1 56 0
 100 000e 0446     		mov	r4, r0
 101 0010 78B9     		cbnz	r0, .L6
  57:I2C_Interface.c ****         {
  58:I2C_Interface.c ****             /* Write address of register to be read */
  59:I2C_Interface.c ****             error = I2C_Master_MasterWriteByte(register_address);
 102              		.loc 1 59 0
 103 0012 2846     		mov	r0, r5
 104              	.LVL5:
 105 0014 FFF7FEFF 		bl	I2C_Master_MasterWriteByte
 106              	.LVL6:
  60:I2C_Interface.c ****             if (error == I2C_Master_MSTR_NO_ERROR)
 107              		.loc 1 60 0
 108 0018 0446     		mov	r4, r0
 109 001a 50B9     		cbnz	r0, .L6
  61:I2C_Interface.c ****             {
  62:I2C_Interface.c ****                 /* Send restart condition */
ARM GAS  C:\Users\annat\AppData\Local\Temp\ccM32Xt9.s 			page 4


  63:I2C_Interface.c ****                 error = I2C_Master_MasterSendRestart(device_address, I2C_Master_READ_XFER_MODE);
 110              		.loc 1 63 0
 111 001c 0121     		movs	r1, #1
 112 001e 3046     		mov	r0, r6
 113              	.LVL7:
 114 0020 FFF7FEFF 		bl	I2C_Master_MasterSendRestart
 115              	.LVL8:
  64:I2C_Interface.c ****                 if (error == I2C_Master_MSTR_NO_ERROR)
 116              		.loc 1 64 0
 117 0024 0446     		mov	r4, r0
 118 0026 20B9     		cbnz	r0, .L6
  65:I2C_Interface.c ****                 {
  66:I2C_Interface.c ****                     /* Read data without acknowledgement */
  67:I2C_Interface.c ****                     *data = I2C_Master_MasterReadByte(I2C_Master_NAK_DATA);
 119              		.loc 1 67 0
 120 0028 FFF7FEFF 		bl	I2C_Master_MasterReadByte
 121              	.LVL9:
 122 002c 3870     		strb	r0, [r7]
  68:I2C_Interface.c ****                     /* Send stop condition and return no error */
  69:I2C_Interface.c ****                     I2C_Master_MasterSendStop();
 123              		.loc 1 69 0
 124 002e FFF7FEFF 		bl	I2C_Master_MasterSendStop
 125              	.LVL10:
 126              	.L6:
  70:I2C_Interface.c ****                 }
  71:I2C_Interface.c ****             }
  72:I2C_Interface.c ****         }
  73:I2C_Interface.c ****         /* Send stop condition if something went wrong */
  74:I2C_Interface.c ****         I2C_Master_MasterSendStop();
 127              		.loc 1 74 0
 128 0032 FFF7FEFF 		bl	I2C_Master_MasterSendStop
 129              	.LVL11:
  75:I2C_Interface.c ****         /* Return error code */
  76:I2C_Interface.c ****         return error ? ERROR : NO_ERROR;
  77:I2C_Interface.c ****     }
 130              		.loc 1 77 0
 131 0036 201C     		adds	r0, r4, #0
 132 0038 18BF     		it	ne
 133 003a 0120     		movne	r0, #1
 134 003c F8BD     		pop	{r3, r4, r5, r6, r7, pc}
 135              		.cfi_endproc
 136              	.LFE2:
 137              		.size	I2C_Peripheral_ReadRegister, .-I2C_Peripheral_ReadRegister
 138 003e 00BF     		.section	.text.I2C_Peripheral_ReadRegisterMulti,"ax",%progbits
 139              		.align	2
 140              		.global	I2C_Peripheral_ReadRegisterMulti
 141              		.thumb
 142              		.thumb_func
 143              		.type	I2C_Peripheral_ReadRegisterMulti, %function
 144              	I2C_Peripheral_ReadRegisterMulti:
 145              	.LFB3:
  78:I2C_Interface.c ****     
  79:I2C_Interface.c ****     ErrorCode I2C_Peripheral_ReadRegisterMulti(uint8_t device_address,
  80:I2C_Interface.c ****                                                 uint8_t register_address,
  81:I2C_Interface.c ****                                                 uint8_t register_count,
  82:I2C_Interface.c ****                                                 uint8_t* data)
  83:I2C_Interface.c ****     {
ARM GAS  C:\Users\annat\AppData\Local\Temp\ccM32Xt9.s 			page 5


 146              		.loc 1 83 0
 147              		.cfi_startproc
 148              		@ args = 0, pretend = 0, frame = 0
 149              		@ frame_needed = 0, uses_anonymous_args = 0
 150              	.LVL12:
 151 0000 2DE9F041 		push	{r4, r5, r6, r7, r8, lr}
 152              		.cfi_def_cfa_offset 24
 153              		.cfi_offset 4, -24
 154              		.cfi_offset 5, -20
 155              		.cfi_offset 6, -16
 156              		.cfi_offset 7, -12
 157              		.cfi_offset 8, -8
 158              		.cfi_offset 14, -4
 159 0004 8046     		mov	r8, r0
 160 0006 0C46     		mov	r4, r1
 161 0008 1646     		mov	r6, r2
 162 000a 1F46     		mov	r7, r3
  84:I2C_Interface.c ****         /* Send start condition */
  85:I2C_Interface.c ****         uint8_t error = I2C_Master_MasterSendStart(device_address,I2C_Master_WRITE_XFER_MODE);
 163              		.loc 1 85 0
 164 000c 0021     		movs	r1, #0
 165              	.LVL13:
 166 000e FFF7FEFF 		bl	I2C_Master_MasterSendStart
 167              	.LVL14:
  86:I2C_Interface.c ****         if (error == I2C_Master_MSTR_NO_ERROR)
 168              		.loc 1 86 0
 169 0012 0546     		mov	r5, r0
 170 0014 F0B9     		cbnz	r0, .L9
 171              	.LVL15:
  87:I2C_Interface.c ****         {
  88:I2C_Interface.c ****             /* Write address of register to be read with the MSB equal to 1 */
  89:I2C_Interface.c ****             register_address |= 0x80;
  90:I2C_Interface.c ****             error = I2C_Master_MasterWriteByte(register_address);
 172              		.loc 1 90 0
 173 0016 44F08000 		orr	r0, r4, #128
 174              	.LVL16:
 175 001a FFF7FEFF 		bl	I2C_Master_MasterWriteByte
 176              	.LVL17:
  91:I2C_Interface.c ****             if (error == I2C_Master_MSTR_NO_ERROR)
 177              		.loc 1 91 0
 178 001e 0546     		mov	r5, r0
 179 0020 C0B9     		cbnz	r0, .L9
  92:I2C_Interface.c ****             {
  93:I2C_Interface.c ****                 /* Send restart condition */
  94:I2C_Interface.c ****                 error = I2C_Master_MasterSendRestart(device_address, I2C_Master_READ_XFER_MODE);
 180              		.loc 1 94 0
 181 0022 0121     		movs	r1, #1
 182 0024 4046     		mov	r0, r8
 183              	.LVL18:
 184 0026 FFF7FEFF 		bl	I2C_Master_MasterSendRestart
 185              	.LVL19:
  95:I2C_Interface.c ****                 if (error == I2C_Master_MSTR_NO_ERROR)
 186              		.loc 1 95 0
 187 002a 0546     		mov	r5, r0
 188 002c 50B1     		cbz	r0, .L12
 189 002e 11E0     		b	.L9
 190              	.LVL20:
ARM GAS  C:\Users\annat\AppData\Local\Temp\ccM32Xt9.s 			page 6


 191              	.L11:
 192              	.LBB2:
  96:I2C_Interface.c ****                 {
  97:I2C_Interface.c ****                     /* Continue reading until we have register to read */
  98:I2C_Interface.c ****                     uint8_t counter = register_count;
  99:I2C_Interface.c ****                     while(counter>1)
 100:I2C_Interface.c ****                     {
 101:I2C_Interface.c ****                         data[register_count-counter] =
 193              		.loc 1 101 0
 194 0030 C4EB0608 		rsb	r8, r4, r6
 102:I2C_Interface.c ****                             I2C_Master_MasterReadByte(I2C_Master_ACK_DATA);
 195              		.loc 1 102 0
 196 0034 0120     		movs	r0, #1
 197 0036 FFF7FEFF 		bl	I2C_Master_MasterReadByte
 198              	.LVL21:
 101:I2C_Interface.c ****                             I2C_Master_MasterReadByte(I2C_Master_ACK_DATA);
 199              		.loc 1 101 0
 200 003a 07F80800 		strb	r0, [r7, r8]
 103:I2C_Interface.c ****                         counter--;
 201              		.loc 1 103 0
 202 003e 013C     		subs	r4, r4, #1
 203              	.LVL22:
 204 0040 E4B2     		uxtb	r4, r4
 205              	.LVL23:
 206 0042 00E0     		b	.L10
 207              	.LVL24:
 208              	.L12:
 209              	.LBE2:
 210 0044 3446     		mov	r4, r6
 211              	.LVL25:
 212              	.L10:
 213              	.LBB3:
  99:I2C_Interface.c ****                     {
 214              		.loc 1 99 0
 215 0046 012C     		cmp	r4, #1
 216 0048 F2D8     		bhi	.L11
 104:I2C_Interface.c ****                     }
 105:I2C_Interface.c ****                     /* Read last data without acknowledgement */
 106:I2C_Interface.c ****                     data[register_count-1]
 217              		.loc 1 106 0
 218 004a 013E     		subs	r6, r6, #1
 107:I2C_Interface.c ****                         = I2C_Master_MasterReadByte(I2C_Master_NAK_DATA);
 219              		.loc 1 107 0
 220 004c 0020     		movs	r0, #0
 221 004e FFF7FEFF 		bl	I2C_Master_MasterReadByte
 222              	.LVL26:
 223 0052 B855     		strb	r0, [r7, r6]
 224              	.LVL27:
 225              	.L9:
 226              	.LBE3:
 108:I2C_Interface.c ****                 }
 109:I2C_Interface.c ****             }
 110:I2C_Interface.c ****         }
 111:I2C_Interface.c ****         /* Send stop condition */
 112:I2C_Interface.c ****         I2C_Master_MasterSendStop();
 227              		.loc 1 112 0
 228 0054 FFF7FEFF 		bl	I2C_Master_MasterSendStop
ARM GAS  C:\Users\annat\AppData\Local\Temp\ccM32Xt9.s 			page 7


 229              	.LVL28:
 113:I2C_Interface.c ****         /* Return error code */
 114:I2C_Interface.c ****         return error ? ERROR : NO_ERROR;
 115:I2C_Interface.c ****     }
 230              		.loc 1 115 0
 231 0058 281C     		adds	r0, r5, #0
 232 005a 18BF     		it	ne
 233 005c 0120     		movne	r0, #1
 234 005e BDE8F081 		pop	{r4, r5, r6, r7, r8, pc}
 235              		.cfi_endproc
 236              	.LFE3:
 237              		.size	I2C_Peripheral_ReadRegisterMulti, .-I2C_Peripheral_ReadRegisterMulti
 238 0062 00BF     		.section	.text.I2C_Peripheral_WriteRegister,"ax",%progbits
 239              		.align	2
 240              		.global	I2C_Peripheral_WriteRegister
 241              		.thumb
 242              		.thumb_func
 243              		.type	I2C_Peripheral_WriteRegister, %function
 244              	I2C_Peripheral_WriteRegister:
 245              	.LFB4:
 116:I2C_Interface.c ****     
 117:I2C_Interface.c ****     ErrorCode I2C_Peripheral_WriteRegister(uint8_t device_address,
 118:I2C_Interface.c ****                                             uint8_t register_address,
 119:I2C_Interface.c ****                                             uint8_t data)
 120:I2C_Interface.c ****     {
 246              		.loc 1 120 0
 247              		.cfi_startproc
 248              		@ args = 0, pretend = 0, frame = 0
 249              		@ frame_needed = 0, uses_anonymous_args = 0
 250              	.LVL29:
 251 0000 70B5     		push	{r4, r5, r6, lr}
 252              		.cfi_def_cfa_offset 16
 253              		.cfi_offset 4, -16
 254              		.cfi_offset 5, -12
 255              		.cfi_offset 6, -8
 256              		.cfi_offset 14, -4
 257 0002 0D46     		mov	r5, r1
 258 0004 1646     		mov	r6, r2
 121:I2C_Interface.c ****         /* Send start condition */
 122:I2C_Interface.c ****         uint8_t error = I2C_Master_MasterSendStart(device_address, I2C_Master_WRITE_XFER_MODE);
 259              		.loc 1 122 0
 260 0006 0021     		movs	r1, #0
 261              	.LVL30:
 262 0008 FFF7FEFF 		bl	I2C_Master_MasterSendStart
 263              	.LVL31:
 123:I2C_Interface.c ****         if (error == I2C_Master_MSTR_NO_ERROR)
 264              		.loc 1 123 0
 265 000c 0446     		mov	r4, r0
 266 000e 40B9     		cbnz	r0, .L15
 124:I2C_Interface.c ****         {
 125:I2C_Interface.c ****             /* Write register address */
 126:I2C_Interface.c ****             error = I2C_Master_MasterWriteByte(register_address);
 267              		.loc 1 126 0
 268 0010 2846     		mov	r0, r5
 269              	.LVL32:
 270 0012 FFF7FEFF 		bl	I2C_Master_MasterWriteByte
 271              	.LVL33:
ARM GAS  C:\Users\annat\AppData\Local\Temp\ccM32Xt9.s 			page 8


 127:I2C_Interface.c ****             if (error == I2C_Master_MSTR_NO_ERROR)
 272              		.loc 1 127 0
 273 0016 0446     		mov	r4, r0
 274 0018 18B9     		cbnz	r0, .L15
 128:I2C_Interface.c ****             {
 129:I2C_Interface.c ****                 /* Write byte of interest */
 130:I2C_Interface.c ****                 error = I2C_Master_MasterWriteByte(data);
 275              		.loc 1 130 0
 276 001a 3046     		mov	r0, r6
 277              	.LVL34:
 278 001c FFF7FEFF 		bl	I2C_Master_MasterWriteByte
 279              	.LVL35:
 280 0020 0446     		mov	r4, r0
 281              	.LVL36:
 282              	.L15:
 131:I2C_Interface.c ****             }
 132:I2C_Interface.c ****         }
 133:I2C_Interface.c ****         /* Send stop condition */
 134:I2C_Interface.c ****         I2C_Master_MasterSendStop();
 283              		.loc 1 134 0
 284 0022 FFF7FEFF 		bl	I2C_Master_MasterSendStop
 285              	.LVL37:
 135:I2C_Interface.c ****         /* Return error code */
 136:I2C_Interface.c ****         return error ? ERROR : NO_ERROR;
 137:I2C_Interface.c ****     }
 286              		.loc 1 137 0
 287 0026 201C     		adds	r0, r4, #0
 288 0028 18BF     		it	ne
 289 002a 0120     		movne	r0, #1
 290 002c 70BD     		pop	{r4, r5, r6, pc}
 291              		.cfi_endproc
 292              	.LFE4:
 293              		.size	I2C_Peripheral_WriteRegister, .-I2C_Peripheral_WriteRegister
 294 002e 00BF     		.section	.text.I2C_Peripheral_IsDeviceConnected,"ax",%progbits
 295              		.align	2
 296              		.global	I2C_Peripheral_IsDeviceConnected
 297              		.thumb
 298              		.thumb_func
 299              		.type	I2C_Peripheral_IsDeviceConnected, %function
 300              	I2C_Peripheral_IsDeviceConnected:
 301              	.LFB5:
 138:I2C_Interface.c ****     
 139:I2C_Interface.c ****     
 140:I2C_Interface.c ****     uint8_t I2C_Peripheral_IsDeviceConnected(uint8_t device_address)
 141:I2C_Interface.c ****     {
 302              		.loc 1 141 0
 303              		.cfi_startproc
 304              		@ args = 0, pretend = 0, frame = 0
 305              		@ frame_needed = 0, uses_anonymous_args = 0
 306              	.LVL38:
 307 0000 10B5     		push	{r4, lr}
 308              		.cfi_def_cfa_offset 8
 309              		.cfi_offset 4, -8
 310              		.cfi_offset 14, -4
 142:I2C_Interface.c ****         /* Send a start condition followed by a stop condition */
 143:I2C_Interface.c ****         uint8_t error = I2C_Master_MasterSendStart(device_address, I2C_Master_WRITE_XFER_MODE);
 311              		.loc 1 143 0
ARM GAS  C:\Users\annat\AppData\Local\Temp\ccM32Xt9.s 			page 9


 312 0002 0021     		movs	r1, #0
 313 0004 FFF7FEFF 		bl	I2C_Master_MasterSendStart
 314              	.LVL39:
 315 0008 0446     		mov	r4, r0
 316              	.LVL40:
 144:I2C_Interface.c ****         I2C_Master_MasterSendStop();
 317              		.loc 1 144 0
 318 000a FFF7FEFF 		bl	I2C_Master_MasterSendStop
 319              	.LVL41:
 145:I2C_Interface.c ****         /* If no error generated during stop, device is connected */
 146:I2C_Interface.c ****         if (error == I2C_Master_MSTR_NO_ERROR)
 320              		.loc 1 146 0
 321 000e 0CB9     		cbnz	r4, .L19
 147:I2C_Interface.c ****         {
 148:I2C_Interface.c ****             return DEVICE_CONNECTED;
 322              		.loc 1 148 0
 323 0010 0120     		movs	r0, #1
 324 0012 10BD     		pop	{r4, pc}
 325              	.LVL42:
 326              	.L19:
 149:I2C_Interface.c ****         }
 150:I2C_Interface.c ****         return DEVICE_UNCONNECTED;
 327              		.loc 1 150 0
 328 0014 0020     		movs	r0, #0
 151:I2C_Interface.c ****     }
 329              		.loc 1 151 0
 330 0016 10BD     		pop	{r4, pc}
 331              		.cfi_endproc
 332              	.LFE5:
 333              		.size	I2C_Peripheral_IsDeviceConnected, .-I2C_Peripheral_IsDeviceConnected
 334              		.text
 335              	.Letext0:
 336              		.file 2 "c:\\program files (x86)\\cypress\\psoc creator\\4.3\\psoc creator\\import\\gnu\\arm\\5.4.
 337              		.file 3 "c:\\program files (x86)\\cypress\\psoc creator\\4.3\\psoc creator\\import\\gnu\\arm\\5.4.
 338              		.file 4 "ErroreCodes.h"
 339              		.file 5 "Generated_Source\\PSoC5/I2C_Master.h"