ARM GAS  C:\Users\Vanessa Aloia.Vanessa\AppData\Local\Temp\ccVSb2XL.s 			page 1


   1              		.syntax unified
   2              		.cpu cortex-m3
   3              		.fpu softvfp
   4              		.eabi_attribute 20, 1
   5              		.eabi_attribute 21, 1
   6              		.eabi_attribute 23, 3
   7              		.eabi_attribute 24, 1
   8              		.eabi_attribute 25, 1
   9              		.eabi_attribute 26, 1
  10              		.eabi_attribute 30, 1
  11              		.eabi_attribute 34, 1
  12              		.eabi_attribute 18, 4
  13              		.thumb
  14              		.syntax unified
  15              		.file	"InterruptRoutines.c"
  16              		.text
  17              	.Ltext0:
  18              		.cfi_sections	.debug_frame
  19              		.section	.text.Custom_isr_TIMER,"ax",%progbits
  20              		.align	2
  21              		.global	Custom_isr_TIMER
  22              		.thumb
  23              		.thumb_func
  24              		.type	Custom_isr_TIMER, %function
  25              	Custom_isr_TIMER:
  26              	.LFB64:
  27              		.file 1 "InterruptRoutines.c"
   1:InterruptRoutines.c **** /* ========================================
   2:InterruptRoutines.c ****  *
   3:InterruptRoutines.c ****  * Copyright YOUR COMPANY, THE YEAR
   4:InterruptRoutines.c ****  * All Rights Reserved
   5:InterruptRoutines.c ****  * UNPUBLISHED, LICENSED SOFTWARE.
   6:InterruptRoutines.c ****  *
   7:InterruptRoutines.c ****  * CONFIDENTIAL AND PROPRIETARY INFORMATION
   8:InterruptRoutines.c ****  * WHICH IS THE PROPERTY OF your company.
   9:InterruptRoutines.c ****  *
  10:InterruptRoutines.c ****  * ========================================
  11:InterruptRoutines.c **** */
  12:InterruptRoutines.c **** #include "InterruptRoutines.h"
  13:InterruptRoutines.c **** #include "project.h"
  14:InterruptRoutines.c **** #include "I2C_Interface.h"
  15:InterruptRoutines.c **** #include "LIS3DH_Registers.h"
  16:InterruptRoutines.c **** 
  17:InterruptRoutines.c **** 
  18:InterruptRoutines.c **** int16 temperature_digit = 0;
  19:InterruptRoutines.c **** int16 temperature_mv = 0;
  20:InterruptRoutines.c **** float temperature_celsius = 0;
  21:InterruptRoutines.c **** char message[20];
  22:InterruptRoutines.c **** 
  23:InterruptRoutines.c **** 
  24:InterruptRoutines.c **** /* array to store accelerometer output data read from FIFO (starting from the position zero, for 32
  25:InterruptRoutines.c **** uint8_t AccelerometerData[BYTES_READ_FROM_FIFO];
  26:InterruptRoutines.c **** 
  27:InterruptRoutines.c **** /* array to store the 3 accelerations in digit(from the position zero, for 32 samples: X axis, Y ax
  28:InterruptRoutines.c **** int16_t Accelerations_digit[BYTES_READ_FROM_FIFO/2];
  29:InterruptRoutines.c **** 
  30:InterruptRoutines.c **** int16_t Temperature_Data[WATERMARK_LEVEL + 1];
ARM GAS  C:\Users\Vanessa Aloia.Vanessa\AppData\Local\Temp\ccVSb2XL.s 			page 2


  31:InterruptRoutines.c **** uint8_t EEPROM_Data[EEPROM_PACKET_BYTES * (WATERMARK_LEVEL + 1)];
  32:InterruptRoutines.c **** //uint8_t DataBuffer[BYTES_READ_FROM_FIFO];
  33:InterruptRoutines.c **** //uint8_t DataBuffer2[ACCELEROMETER_DATA_BYTES+2];
  34:InterruptRoutines.c **** //volatile uint8_t PacketReadyFlag = 0;
  35:InterruptRoutines.c **** volatile uint8_t FIFODataReadyFlag = 0;   
  36:InterruptRoutines.c **** volatile uint8_t TempDataReadyFlag = 0;
  37:InterruptRoutines.c **** 
  38:InterruptRoutines.c **** CY_ISR(Custom_isr_TIMER){
  28              		.loc 1 38 0
  29              		.cfi_startproc
  30              		@ args = 0, pretend = 0, frame = 0
  31              		@ frame_needed = 0, uses_anonymous_args = 0
  32 0000 10B5     		push	{r4, lr}
  33              		.cfi_def_cfa_offset 8
  34              		.cfi_offset 4, -8
  35              		.cfi_offset 14, -4
  39:InterruptRoutines.c ****     Timer_ReadStatusRegister();
  36              		.loc 1 39 0
  37 0002 FFF7FEFF 		bl	Timer_ReadStatusRegister
  38              	.LVL0:
  40:InterruptRoutines.c ****     
  41:InterruptRoutines.c ****     temperature_digit = ADC_DelSig_Read16();
  39              		.loc 1 41 0
  40 0006 FFF7FEFF 		bl	ADC_DelSig_Read16
  41              	.LVL1:
  42 000a 0B4B     		ldr	r3, .L5
  43 000c 1880     		strh	r0, [r3]	@ movhi
  42:InterruptRoutines.c ****     
  43:InterruptRoutines.c ****     if(temperature_digit < 0) temperature_digit = 0;
  44              		.loc 1 43 0
  45 000e 0028     		cmp	r0, #0
  46 0010 01DA     		bge	.L2
  47              		.loc 1 43 0 is_stmt 0 discriminator 1
  48 0012 0022     		movs	r2, #0
  49 0014 1A80     		strh	r2, [r3]	@ movhi
  50              	.L2:
  44:InterruptRoutines.c ****     if(temperature_digit > 1023) temperature_digit = 1023;
  51              		.loc 1 44 0 is_stmt 1
  52 0016 084B     		ldr	r3, .L5
  53 0018 B3F90030 		ldrsh	r3, [r3]
  54 001c B3F5806F 		cmp	r3, #1024
  55 0020 03DB     		blt	.L3
  56              		.loc 1 44 0 is_stmt 0 discriminator 1
  57 0022 40F2FF32 		movw	r2, #1023
  58 0026 044B     		ldr	r3, .L5
  59 0028 1A80     		strh	r2, [r3]	@ movhi
  60              	.L3:
  45:InterruptRoutines.c ****     
  46:InterruptRoutines.c ****     temperature_mv = ADC_DelSig_CountsTo_mVolts(temperature_digit);
  61              		.loc 1 46 0 is_stmt 1
  62 002a 034C     		ldr	r4, .L5
  63 002c B4F90000 		ldrsh	r0, [r4]
  64 0030 FFF7FEFF 		bl	ADC_DelSig_CountsTo_mVolts
  65              	.LVL2:
  66 0034 6080     		strh	r0, [r4, #2]	@ movhi
  67 0036 10BD     		pop	{r4, pc}
  68              	.L6:
ARM GAS  C:\Users\Vanessa Aloia.Vanessa\AppData\Local\Temp\ccVSb2XL.s 			page 3


  69              		.align	2
  70              	.L5:
  71 0038 00000000 		.word	.LANCHOR0
  72              		.cfi_endproc
  73              	.LFE64:
  74              		.size	Custom_isr_TIMER, .-Custom_isr_TIMER
  75              		.section	.text.Custom_isr_UART,"ax",%progbits
  76              		.align	2
  77              		.global	Custom_isr_UART
  78              		.thumb
  79              		.thumb_func
  80              		.type	Custom_isr_UART, %function
  81              	Custom_isr_UART:
  82              	.LFB65:
  47:InterruptRoutines.c ****     
  48:InterruptRoutines.c **** }
  49:InterruptRoutines.c **** 
  50:InterruptRoutines.c **** 
  51:InterruptRoutines.c **** CY_ISR(Custom_isr_UART)
  52:InterruptRoutines.c **** {
  83              		.loc 1 52 0
  84              		.cfi_startproc
  85              		@ args = 0, pretend = 0, frame = 0
  86              		@ frame_needed = 0, uses_anonymous_args = 0
  87 0000 08B5     		push	{r3, lr}
  88              		.cfi_def_cfa_offset 8
  89              		.cfi_offset 3, -8
  90              		.cfi_offset 14, -4
  53:InterruptRoutines.c ****       char ch_received;
  54:InterruptRoutines.c ****        /* character on the Rx line stored */
  55:InterruptRoutines.c ****        ch_received= UART_GetChar();
  91              		.loc 1 55 0
  92 0002 FFF7FEFF 		bl	UART_GetChar
  93              	.LVL3:
  56:InterruptRoutines.c ****     
  57:InterruptRoutines.c ****        if (change_settings_flag==0)
  94              		.loc 1 57 0
  95 0006 224B     		ldr	r3, .L19
  96 0008 1B78     		ldrb	r3, [r3]	@ zero_extendqisi2
  97 000a 2BB9     		cbnz	r3, .L8
  58:InterruptRoutines.c ****        {
  59:InterruptRoutines.c ****             
  60:InterruptRoutines.c ****            switch (ch_received)
  98              		.loc 1 60 0
  99 000c 3F28     		cmp	r0, #63
 100 000e 3DD1     		bne	.L7
  61:InterruptRoutines.c ****            {
  62:InterruptRoutines.c ****             
  63:InterruptRoutines.c ****                 case '?':
  64:InterruptRoutines.c ****                 
  65:InterruptRoutines.c ****                     /* show Configuration menu */
  66:InterruptRoutines.c ****                 
  67:InterruptRoutines.c ****                     /* futher characters used for changing configurations of the acquisition */
  68:InterruptRoutines.c ****                     change_settings_flag=1;
 101              		.loc 1 68 0
 102 0010 0122     		movs	r2, #1
 103 0012 1F4B     		ldr	r3, .L19
ARM GAS  C:\Users\Vanessa Aloia.Vanessa\AppData\Local\Temp\ccVSb2XL.s 			page 4


 104 0014 1A70     		strb	r2, [r3]
  69:InterruptRoutines.c ****                    
  70:InterruptRoutines.c ****                     break;
 105              		.loc 1 70 0
 106 0016 08BD     		pop	{r3, pc}
 107              	.L8:
  71:InterruptRoutines.c ****                 
  72:InterruptRoutines.c ****                 case 'v': 
  73:InterruptRoutines.c ****                 case 'V':
  74:InterruptRoutines.c ****                 
  75:InterruptRoutines.c ****                     /* show data in the bridge control panel */
  76:InterruptRoutines.c ****                 
  77:InterruptRoutines.c ****                     /* stop acquisition and storing in the EEPROM */
  78:InterruptRoutines.c ****                     break;
  79:InterruptRoutines.c ****                 
  80:InterruptRoutines.c ****                 case 'u':
  81:InterruptRoutines.c ****                 case 'U':
  82:InterruptRoutines.c ****                 
  83:InterruptRoutines.c ****                     /* stop streaming of data in bridge control panel */
  84:InterruptRoutines.c ****                     
  85:InterruptRoutines.c ****                     
  86:InterruptRoutines.c ****                     break;
  87:InterruptRoutines.c ****             
  88:InterruptRoutines.c ****                 /*for every other character */
  89:InterruptRoutines.c ****                 default:
  90:InterruptRoutines.c ****                     break;
  91:InterruptRoutines.c ****             }
  92:InterruptRoutines.c ****     }
  93:InterruptRoutines.c ****     
  94:InterruptRoutines.c ****     else {
  95:InterruptRoutines.c ****         
  96:InterruptRoutines.c ****         
  97:InterruptRoutines.c ****         if(option_table == DONT_SHOW_TABLE)
 108              		.loc 1 97 0
 109 0018 1E4B     		ldr	r3, .L19+4
 110 001a 1B78     		ldrb	r3, [r3]	@ zero_extendqisi2
 111 001c 032B     		cmp	r3, #3
 112 001e 35D1     		bne	.L7
  98:InterruptRoutines.c ****         {
  99:InterruptRoutines.c ****             switch( ch_received ) 
 113              		.loc 1 99 0
 114 0020 4238     		subs	r0, r0, #66
 115              	.LVL4:
 116 0022 3228     		cmp	r0, #50
 117 0024 32D8     		bhi	.L7
 118 0026 DFE800F0 		tbb	[pc, r0]
 119              	.L12:
 120 002a 1A       		.byte	(.L11-.L12)/2
 121 002b 31       		.byte	(.L7-.L12)/2
 122 002c 31       		.byte	(.L7-.L12)/2
 123 002d 31       		.byte	(.L7-.L12)/2
 124 002e 22       		.byte	(.L13-.L12)/2
 125 002f 31       		.byte	(.L7-.L12)/2
 126 0030 31       		.byte	(.L7-.L12)/2
 127 0031 31       		.byte	(.L7-.L12)/2
 128 0032 31       		.byte	(.L7-.L12)/2
 129 0033 31       		.byte	(.L7-.L12)/2
ARM GAS  C:\Users\Vanessa Aloia.Vanessa\AppData\Local\Temp\ccVSb2XL.s 			page 5


 130 0034 31       		.byte	(.L7-.L12)/2
 131 0035 31       		.byte	(.L7-.L12)/2
 132 0036 31       		.byte	(.L7-.L12)/2
 133 0037 31       		.byte	(.L7-.L12)/2
 134 0038 26       		.byte	(.L14-.L12)/2
 135 0039 2E       		.byte	(.L15-.L12)/2
 136 003a 31       		.byte	(.L7-.L12)/2
 137 003b 1E       		.byte	(.L16-.L12)/2
 138 003c 2A       		.byte	(.L17-.L12)/2
 139 003d 31       		.byte	(.L7-.L12)/2
 140 003e 31       		.byte	(.L7-.L12)/2
 141 003f 31       		.byte	(.L7-.L12)/2
 142 0040 31       		.byte	(.L7-.L12)/2
 143 0041 31       		.byte	(.L7-.L12)/2
 144 0042 31       		.byte	(.L7-.L12)/2
 145 0043 31       		.byte	(.L7-.L12)/2
 146 0044 31       		.byte	(.L7-.L12)/2
 147 0045 31       		.byte	(.L7-.L12)/2
 148 0046 31       		.byte	(.L7-.L12)/2
 149 0047 31       		.byte	(.L7-.L12)/2
 150 0048 31       		.byte	(.L7-.L12)/2
 151 0049 31       		.byte	(.L7-.L12)/2
 152 004a 1A       		.byte	(.L11-.L12)/2
 153 004b 31       		.byte	(.L7-.L12)/2
 154 004c 31       		.byte	(.L7-.L12)/2
 155 004d 31       		.byte	(.L7-.L12)/2
 156 004e 22       		.byte	(.L13-.L12)/2
 157 004f 31       		.byte	(.L7-.L12)/2
 158 0050 31       		.byte	(.L7-.L12)/2
 159 0051 31       		.byte	(.L7-.L12)/2
 160 0052 31       		.byte	(.L7-.L12)/2
 161 0053 31       		.byte	(.L7-.L12)/2
 162 0054 31       		.byte	(.L7-.L12)/2
 163 0055 31       		.byte	(.L7-.L12)/2
 164 0056 31       		.byte	(.L7-.L12)/2
 165 0057 31       		.byte	(.L7-.L12)/2
 166 0058 26       		.byte	(.L14-.L12)/2
 167 0059 2E       		.byte	(.L15-.L12)/2
 168 005a 31       		.byte	(.L7-.L12)/2
 169 005b 1E       		.byte	(.L16-.L12)/2
 170 005c 2A       		.byte	(.L17-.L12)/2
 171 005d 00       		.p2align 1
 172              	.L11:
 100:InterruptRoutines.c ****             {
 101:InterruptRoutines.c ****                 case 'b':
 102:InterruptRoutines.c ****                 case 'B':
 103:InterruptRoutines.c ****                     /* start data acquisition and storage in EEPROM */
 104:InterruptRoutines.c ****                     
 105:InterruptRoutines.c ****                     /* change the value of the start/stop flag */
 106:InterruptRoutines.c ****                     start=1;
 173              		.loc 1 106 0
 174 005e 0122     		movs	r2, #1
 175 0060 0D4B     		ldr	r3, .L19+8
 176 0062 1A70     		strb	r2, [r3]
 107:InterruptRoutines.c ****                     /* save the value of the flag in the EEPROM */
 108:InterruptRoutines.c ****                 
 109:InterruptRoutines.c ****                     break;
ARM GAS  C:\Users\Vanessa Aloia.Vanessa\AppData\Local\Temp\ccVSb2XL.s 			page 6


 177              		.loc 1 109 0
 178 0064 08BD     		pop	{r3, pc}
 179              	.L16:
 110:InterruptRoutines.c ****                 
 111:InterruptRoutines.c ****                 case 's': 
 112:InterruptRoutines.c ****                 case 'S':
 113:InterruptRoutines.c ****                     /* stop data acquisition and storage in EEPROM */
 114:InterruptRoutines.c ****                     
 115:InterruptRoutines.c ****                     /* change the value of the start/stop flag */
 116:InterruptRoutines.c ****                     start=0;
 180              		.loc 1 116 0
 181 0066 0022     		movs	r2, #0
 182 0068 0B4B     		ldr	r3, .L19+8
 183 006a 1A70     		strb	r2, [r3]
 117:InterruptRoutines.c ****                     /* save the value of the flag in the EEPROM */
 118:InterruptRoutines.c ****                 
 119:InterruptRoutines.c ****                     break;
 184              		.loc 1 119 0
 185 006c 08BD     		pop	{r3, pc}
 186              	.L13:
 120:InterruptRoutines.c ****                 
 121:InterruptRoutines.c ****                 case 'f':
 122:InterruptRoutines.c ****                 case 'F':
 123:InterruptRoutines.c ****                 
 124:InterruptRoutines.c ****                     /* show accelerometer full scale range table */
 125:InterruptRoutines.c ****                     option_table= F_S_R;
 187              		.loc 1 125 0
 188 006e 0022     		movs	r2, #0
 189 0070 084B     		ldr	r3, .L19+4
 190 0072 1A70     		strb	r2, [r3]
 126:InterruptRoutines.c ****                     break;
 191              		.loc 1 126 0
 192 0074 08BD     		pop	{r3, pc}
 193              	.L14:
 127:InterruptRoutines.c ****                 
 128:InterruptRoutines.c ****                 case 'p':
 129:InterruptRoutines.c ****                 case 'P':
 130:InterruptRoutines.c ****                     /* show accelerometer sampling frequency */
 131:InterruptRoutines.c ****                     option_table= SAMP_FREQ;
 194              		.loc 1 131 0
 195 0076 0122     		movs	r2, #1
 196 0078 064B     		ldr	r3, .L19+4
 197 007a 1A70     		strb	r2, [r3]
 132:InterruptRoutines.c ****                     break;
 198              		.loc 1 132 0
 199 007c 08BD     		pop	{r3, pc}
 200              	.L17:
 133:InterruptRoutines.c ****                 
 134:InterruptRoutines.c ****                 case 't':
 135:InterruptRoutines.c ****                 case 'T':
 136:InterruptRoutines.c ****                     /* show temperature sensor unit of measurement table */
 137:InterruptRoutines.c ****                     option_table= TEMP;
 201              		.loc 1 137 0
 202 007e 0222     		movs	r2, #2
 203 0080 044B     		ldr	r3, .L19+4
 204 0082 1A70     		strb	r2, [r3]
 138:InterruptRoutines.c ****                     break;
ARM GAS  C:\Users\Vanessa Aloia.Vanessa\AppData\Local\Temp\ccVSb2XL.s 			page 7


 205              		.loc 1 138 0
 206 0084 08BD     		pop	{r3, pc}
 207              	.L15:
 139:InterruptRoutines.c ****                 
 140:InterruptRoutines.c ****                 case 'q':
 141:InterruptRoutines.c ****                 case 'Q':  
 142:InterruptRoutines.c ****                     
 143:InterruptRoutines.c ****                     /* set flag to 0 to quit the configuration menu */
 144:InterruptRoutines.c ****                     change_settings_flag=0;
 208              		.loc 1 144 0
 209 0086 0022     		movs	r2, #0
 210 0088 014B     		ldr	r3, .L19
 211 008a 1A70     		strb	r2, [r3]
 212              	.L7:
 213 008c 08BD     		pop	{r3, pc}
 214              	.L20:
 215 008e 00BF     		.align	2
 216              	.L19:
 217 0090 00000000 		.word	change_settings_flag
 218 0094 00000000 		.word	option_table
 219 0098 00000000 		.word	start
 220              		.cfi_endproc
 221              	.LFE65:
 222              		.size	Custom_isr_UART, .-Custom_isr_UART
 223              		.section	.text.Custom_isr_FIFO,"ax",%progbits
 224              		.align	2
 225              		.global	Custom_isr_FIFO
 226              		.thumb
 227              		.thumb_func
 228              		.type	Custom_isr_FIFO, %function
 229              	Custom_isr_FIFO:
 230              	.LFB66:
 145:InterruptRoutines.c ****                     break;
 146:InterruptRoutines.c ****                 /* do nothing for every other character */
 147:InterruptRoutines.c ****                 default:
 148:InterruptRoutines.c ****                         break;
 149:InterruptRoutines.c ****             }
 150:InterruptRoutines.c ****         }
 151:InterruptRoutines.c ****         
 152:InterruptRoutines.c ****         //else {
 153:InterruptRoutines.c ****             
 154:InterruptRoutines.c ****             /* change settings */
 155:InterruptRoutines.c ****             //option_table=DONT_SHOW_TABLE;
 156:InterruptRoutines.c ****             
 157:InterruptRoutines.c ****         //}
 158:InterruptRoutines.c ****                 
 159:InterruptRoutines.c ****     }
 160:InterruptRoutines.c **** }
 161:InterruptRoutines.c **** 
 162:InterruptRoutines.c **** 
 163:InterruptRoutines.c **** /*
 164:InterruptRoutines.c **** * \brief ISR on FIFO watermark level (generated every xx):
 165:InterruptRoutines.c **** * \-read the accelerometer register int1_src to clear the interrupt signal on INT1 pin
 166:InterruptRoutines.c **** */
 167:InterruptRoutines.c **** CY_ISR(Custom_isr_FIFO) {
 231              		.loc 1 167 0
 232              		.cfi_startproc
ARM GAS  C:\Users\Vanessa Aloia.Vanessa\AppData\Local\Temp\ccVSb2XL.s 			page 8


 233              		@ args = 0, pretend = 0, frame = 8
 234              		@ frame_needed = 0, uses_anonymous_args = 0
 235 0000 00B5     		push	{lr}
 236              		.cfi_def_cfa_offset 4
 237              		.cfi_offset 14, -4
 238 0002 83B0     		sub	sp, sp, #12
 239              		.cfi_def_cfa_offset 16
 168:InterruptRoutines.c ****     
 169:InterruptRoutines.c ****     uint8_t int1_src_reg;
 170:InterruptRoutines.c ****     ErrorCode error = I2C_Peripheral_ReadRegister(LIS3DH_DEVICE_ADDRESS,
 240              		.loc 1 170 0
 241 0004 0DF10702 		add	r2, sp, #7
 242 0008 3121     		movs	r1, #49
 243 000a 1820     		movs	r0, #24
 244 000c FFF7FEFF 		bl	I2C_Peripheral_ReadRegister
 245              	.LVL5:
 171:InterruptRoutines.c ****                                                   INT1_SRC_ADDR,
 172:InterruptRoutines.c ****                                                   &int1_src_reg);
 173:InterruptRoutines.c ****     
 174:InterruptRoutines.c ****     if (error == NO_ERROR) {
 246              		.loc 1 174 0
 247 0010 E8B9     		cbnz	r0, .L21
 175:InterruptRoutines.c **** 
 176:InterruptRoutines.c ****         error = I2C_Peripheral_ReadRegisterMulti( LIS3DH_DEVICE_ADDRESS,
 248              		.loc 1 176 0
 249 0012 104B     		ldr	r3, .L27
 250 0014 C022     		movs	r2, #192
 251 0016 2821     		movs	r1, #40
 252 0018 1820     		movs	r0, #24
 253              	.LVL6:
 254 001a FFF7FEFF 		bl	I2C_Peripheral_ReadRegisterMulti
 255              	.LVL7:
 177:InterruptRoutines.c ****                                                   OUT_X_L_ADDR,
 178:InterruptRoutines.c ****                                                   192,
 179:InterruptRoutines.c ****                                                   AccelerometerData);   
 180:InterruptRoutines.c ****         
 181:InterruptRoutines.c ****         if (error == NO_ERROR) {
 256              		.loc 1 181 0
 257 001e 80B1     		cbz	r0, .L25
 258 0020 15E0     		b	.L21
 259              	.LVL8:
 260              	.L24:
 261              	.LBB2:
 182:InterruptRoutines.c ****             
 183:InterruptRoutines.c ****             uint8_t i;
 184:InterruptRoutines.c ****             for(i = 0; i < BYTES_READ_FROM_FIFO/2; i++) {
 185:InterruptRoutines.c ****                 
 186:InterruptRoutines.c ****                 /* right shift of 6 to get right-justified 10 bits */
 187:InterruptRoutines.c ****                 Accelerations_digit[i] = (int16)((AccelerometerData[i*2] | (AccelerometerData[i*2+1
 262              		.loc 1 187 0 discriminator 3
 263 0022 5900     		lsls	r1, r3, #1
 264 0024 0B48     		ldr	r0, .L27
 265 0026 10F81320 		ldrb	r2, [r0, r3, lsl #1]	@ zero_extendqisi2
 266 002a 0131     		adds	r1, r1, #1
 267 002c 415C     		ldrb	r1, [r0, r1]	@ zero_extendqisi2
 268 002e 42EA0122 		orr	r2, r2, r1, lsl #8
 269 0032 42F38912 		sbfx	r2, r2, #6, #10
ARM GAS  C:\Users\Vanessa Aloia.Vanessa\AppData\Local\Temp\ccVSb2XL.s 			page 9


 270 0036 0849     		ldr	r1, .L27+4
 271 0038 21F81320 		strh	r2, [r1, r3, lsl #1]	@ movhi
 184:InterruptRoutines.c ****                 
 272              		.loc 1 184 0 discriminator 3
 273 003c 0133     		adds	r3, r3, #1
 274              	.LVL9:
 275 003e DBB2     		uxtb	r3, r3
 276              	.LVL10:
 277 0040 00E0     		b	.L23
 278              	.LVL11:
 279              	.L25:
 280              	.LBE2:
 281 0042 0023     		movs	r3, #0
 282              	.LVL12:
 283              	.L23:
 284              	.LBB3:
 184:InterruptRoutines.c ****                 
 285              		.loc 1 184 0 is_stmt 0 discriminator 1
 286 0044 5F2B     		cmp	r3, #95
 287 0046 ECD9     		bls	.L24
 188:InterruptRoutines.c **** //              DataBuffer[i*2]=Accelerations_digit[i] & 0xFF;
 189:InterruptRoutines.c **** //              DataBuffer[i*2+1]=Accelerations_digit[i]>>8;
 190:InterruptRoutines.c ****                 
 191:InterruptRoutines.c ****             }      
 192:InterruptRoutines.c ****             FIFODataReadyFlag = 1;
 288              		.loc 1 192 0 is_stmt 1
 289 0048 0122     		movs	r2, #1
 290 004a 044B     		ldr	r3, .L27+8
 291              	.LVL13:
 292 004c 1A71     		strb	r2, [r3, #4]
 293              	.L21:
 294              	.LBE3:
 193:InterruptRoutines.c ****         }
 194:InterruptRoutines.c **** 
 195:InterruptRoutines.c ****     }
 196:InterruptRoutines.c **** }
 295              		.loc 1 196 0
 296 004e 03B0     		add	sp, sp, #12
 297              		.cfi_def_cfa_offset 4
 298              		@ sp needed
 299 0050 5DF804FB 		ldr	pc, [sp], #4
 300              	.L28:
 301              		.align	2
 302              	.L27:
 303 0054 00000000 		.word	AccelerometerData
 304 0058 00000000 		.word	Accelerations_digit
 305 005c 00000000 		.word	.LANCHOR0
 306              		.cfi_endproc
 307              	.LFE66:
 308              		.size	Custom_isr_FIFO, .-Custom_isr_FIFO
 309              		.global	TempDataReadyFlag
 310              		.global	FIFODataReadyFlag
 311              		.comm	EEPROM_Data,68,4
 312              		.comm	Temperature_Data,64,4
 313              		.comm	Accelerations_digit,192,4
 314              		.comm	AccelerometerData,192,4
 315              		.comm	message,20,4
ARM GAS  C:\Users\Vanessa Aloia.Vanessa\AppData\Local\Temp\ccVSb2XL.s 			page 10


 316              		.global	temperature_celsius
 317              		.global	temperature_mv
 318              		.global	temperature_digit
 319              		.comm	option_table,1,1
 320              		.comm	start,1,1
 321              		.comm	change_settings_flag,1,1
 322              		.comm	FlagReady,1,1
 323              		.bss
 324              		.align	2
 325              		.set	.LANCHOR0,. + 0
 326              		.type	temperature_digit, %object
 327              		.size	temperature_digit, 2
 328              	temperature_digit:
 329 0000 0000     		.space	2
 330              		.type	temperature_mv, %object
 331              		.size	temperature_mv, 2
 332              	temperature_mv:
 333 0002 0000     		.space	2
 334              		.type	FIFODataReadyFlag, %object
 335              		.size	FIFODataReadyFlag, 1
 336              	FIFODataReadyFlag:
 337 0004 00       		.space	1
 338              		.type	TempDataReadyFlag, %object
 339              		.size	TempDataReadyFlag, 1
 340              	TempDataReadyFlag:
 341 0005 00       		.space	1
 342 0006 0000     		.space	2
 343              		.type	temperature_celsius, %object
 344              		.size	temperature_celsius, 4
 345              	temperature_celsius:
 346 0008 00000000 		.space	4
 347              		.text
 348              	.Letext0:
 349              		.file 2 "c:\\program files (x86)\\cypress\\psoc creator\\4.3\\psoc creator\\import\\gnu\\arm\\5.4.
 350              		.file 3 "c:\\program files (x86)\\cypress\\psoc creator\\4.3\\psoc creator\\import\\gnu\\arm\\5.4.
 351              		.file 4 "Generated_Source\\PSoC5/cytypes.h"
 352              		.file 5 "ErroreCodes.h"
 353              		.file 6 "InterruptRoutines.h"
 354              		.file 7 "Generated_Source\\PSoC5/core_cm3.h"
 355              		.file 8 "Generated_Source\\PSoC5/Timer.h"
 356              		.file 9 "Generated_Source\\PSoC5/ADC_DelSig.h"
 357              		.file 10 "Generated_Source\\PSoC5/UART.h"
 358              		.file 11 "I2C_Interface.h"