ARM GAS  C:\Users\Vanessa Aloia.Vanessa\AppData\Local\Temp\cch06VrJ.s 			page 1


   1              		.syntax unified
   2              		.cpu cortex-m3
   3              		.fpu softvfp
   4              		.eabi_attribute 20, 1
   5              		.eabi_attribute 21, 1
   6              		.eabi_attribute 23, 3
   7              		.eabi_attribute 24, 1
   8              		.eabi_attribute 25, 1
   9              		.eabi_attribute 26, 1
  10              		.eabi_attribute 30, 1
  11              		.eabi_attribute 34, 1
  12              		.eabi_attribute 18, 4
  13              		.thumb
  14              		.syntax unified
  15              		.file	"LIS3DH_Registers.c"
  16              		.text
  17              	.Ltext0:
  18              		.cfi_sections	.debug_frame
  19              		.section	.text.Accelerometer_Configuration,"ax",%progbits
  20              		.align	2
  21              		.global	Accelerometer_Configuration
  22              		.thumb
  23              		.thumb_func
  24              		.type	Accelerometer_Configuration, %function
  25              	Accelerometer_Configuration:
  26              	.LFB64:
  27              		.file 1 "LIS3DH_Registers.c"
   1:LIS3DH_Registers.c **** /* 
   2:LIS3DH_Registers.c **** * \file LIS3DH_Registers.c 
   3:LIS3DH_Registers.c **** * \source file for the configuration of accelerometer registers
   4:LIS3DH_Registers.c **** */
   5:LIS3DH_Registers.c **** 
   6:LIS3DH_Registers.c **** #include "LIS3DH_Registers.h"
   7:LIS3DH_Registers.c **** #include "project.h"
   8:LIS3DH_Registers.c **** #include "I2C_Interface.h"
   9:LIS3DH_Registers.c **** #include "stdio.h"
  10:LIS3DH_Registers.c **** 
  11:LIS3DH_Registers.c **** /* 
  12:LIS3DH_Registers.c **** * \brief function to configure accelerometer registers
  13:LIS3DH_Registers.c **** * \Accelerometer registers are non volatile so this function is called only the first time the devi
  14:LIS3DH_Registers.c **** * \settings modifiable by the user are set to default values and will be changed at runtime when th
  15:LIS3DH_Registers.c **** * \(default values for sampling frequency and FSR: 1Hz and ±2g)
  16:LIS3DH_Registers.c **** */
  17:LIS3DH_Registers.c **** void Accelerometer_Configuration(void) {
  28              		.loc 1 17 0
  29              		.cfi_startproc
  30              		@ args = 0, pretend = 0, frame = 64
  31              		@ frame_needed = 0, uses_anonymous_args = 0
  32 0000 10B5     		push	{r4, lr}
  33              		.cfi_def_cfa_offset 8
  34              		.cfi_offset 4, -8
  35              		.cfi_offset 14, -4
  36 0002 90B0     		sub	sp, sp, #64
  37              		.cfi_def_cfa_offset 72
  38              	.LVL0:
  39              	.LBB2:
  18:LIS3DH_Registers.c ****     
ARM GAS  C:\Users\Vanessa Aloia.Vanessa\AppData\Local\Temp\cch06VrJ.s 			page 2


  19:LIS3DH_Registers.c ****     /* String to print out messages on the UART */
  20:LIS3DH_Registers.c ****     char message[50];
  21:LIS3DH_Registers.c ****     
  22:LIS3DH_Registers.c ****     /* Variable to check error in I2C communication */
  23:LIS3DH_Registers.c ****     ErrorCode error;    
  24:LIS3DH_Registers.c **** 
  25:LIS3DH_Registers.c ****     /* Check which devices are present on the I2C bus */
  26:LIS3DH_Registers.c ****     for (int i = 0 ; i < 128; i++)
  40              		.loc 1 26 0
  41 0004 0024     		movs	r4, #0
  42 0006 0CE0     		b	.L2
  43              	.LVL1:
  44              	.L4:
  27:LIS3DH_Registers.c ****     {
  28:LIS3DH_Registers.c ****         if (I2C_Peripheral_IsDeviceConnected(i))
  45              		.loc 1 28 0
  46 0008 E0B2     		uxtb	r0, r4
  47 000a FFF7FEFF 		bl	I2C_Peripheral_IsDeviceConnected
  48              	.LVL2:
  49 000e 38B1     		cbz	r0, .L3
  29:LIS3DH_Registers.c ****         {
  30:LIS3DH_Registers.c ****             /* print out the address in hex format */
  31:LIS3DH_Registers.c ****             sprintf(message, "Device 0x%02X is connected\r\n", i);
  50              		.loc 1 31 0
  51 0010 2246     		mov	r2, r4
  52 0012 AE49     		ldr	r1, .L36
  53 0014 03A8     		add	r0, sp, #12
  54 0016 FFF7FEFF 		bl	sprintf
  55              	.LVL3:
  32:LIS3DH_Registers.c ****             UART_PutString(message); 
  56              		.loc 1 32 0
  57 001a 03A8     		add	r0, sp, #12
  58 001c FFF7FEFF 		bl	UART_PutString
  59              	.LVL4:
  60              	.L3:
  26:LIS3DH_Registers.c ****     {
  61              		.loc 1 26 0 discriminator 2
  62 0020 0134     		adds	r4, r4, #1
  63              	.LVL5:
  64              	.L2:
  26:LIS3DH_Registers.c ****     {
  65              		.loc 1 26 0 is_stmt 0 discriminator 1
  66 0022 7F2C     		cmp	r4, #127
  67 0024 F0DD     		ble	.L4
  68              	.LBE2:
  33:LIS3DH_Registers.c ****         }
  34:LIS3DH_Registers.c ****         
  35:LIS3DH_Registers.c ****     }
  36:LIS3DH_Registers.c ****     
  37:LIS3DH_Registers.c ****     /* REGISTERS CONFIGURATION: registers are first read and then, only if their content is not the
  38:LIS3DH_Registers.c ****     
  39:LIS3DH_Registers.c ****     
  40:LIS3DH_Registers.c ****     /* Configuration of control registers 1 and 4 to output 3 Axis accelerometer data in Normal Res
  41:LIS3DH_Registers.c ****     /* See registers.h for single bits meaning */
  42:LIS3DH_Registers.c **** 
  43:LIS3DH_Registers.c ****     /* Read Control Register 1 */
  44:LIS3DH_Registers.c ****     uint8_t ctrl_reg1; 
ARM GAS  C:\Users\Vanessa Aloia.Vanessa\AppData\Local\Temp\cch06VrJ.s 			page 3


  45:LIS3DH_Registers.c ****     error = I2C_Peripheral_ReadRegister(LIS3DH_DEVICE_ADDRESS,
  69              		.loc 1 45 0 is_stmt 1
  70 0026 0DF10B02 		add	r2, sp, #11
  71 002a 2021     		movs	r1, #32
  72 002c 1820     		movs	r0, #24
  73 002e FFF7FEFF 		bl	I2C_Peripheral_ReadRegister
  74              	.LVL6:
  46:LIS3DH_Registers.c ****                                         CTRL_REG_1_ADDR,
  47:LIS3DH_Registers.c ****                                         &ctrl_reg1);
  48:LIS3DH_Registers.c ****     
  49:LIS3DH_Registers.c ****     if (error == NO_ERROR)
  75              		.loc 1 49 0
  76 0032 48B9     		cbnz	r0, .L5
  50:LIS3DH_Registers.c ****     {
  51:LIS3DH_Registers.c ****         sprintf(message, "CONTROL REGISTER 1: 0x%02X\r\n", ctrl_reg1);
  77              		.loc 1 51 0
  78 0034 9DF80B20 		ldrb	r2, [sp, #11]	@ zero_extendqisi2
  79 0038 A549     		ldr	r1, .L36+4
  80 003a 03A8     		add	r0, sp, #12
  81              	.LVL7:
  82 003c FFF7FEFF 		bl	sprintf
  83              	.LVL8:
  52:LIS3DH_Registers.c ****         UART_PutString(message); 
  84              		.loc 1 52 0
  85 0040 03A8     		add	r0, sp, #12
  86 0042 FFF7FEFF 		bl	UART_PutString
  87              	.LVL9:
  88 0046 02E0     		b	.L6
  89              	.LVL10:
  90              	.L5:
  53:LIS3DH_Registers.c ****     }
  54:LIS3DH_Registers.c ****     else
  55:LIS3DH_Registers.c ****     {
  56:LIS3DH_Registers.c ****         UART_PutString("Error occurred during I2C comm to read control register 1\r\n");   
  91              		.loc 1 56 0
  92 0048 A248     		ldr	r0, .L36+8
  93              	.LVL11:
  94 004a FFF7FEFF 		bl	UART_PutString
  95              	.LVL12:
  96              	.L6:
  57:LIS3DH_Registers.c ****     }
  58:LIS3DH_Registers.c ****     
  59:LIS3DH_Registers.c ****     /* Write Control Register 1 (only if the read content is not the desired one) */
  60:LIS3DH_Registers.c ****     if (ctrl_reg1 != CTRL_REG_1_CONTENT)  
  97              		.loc 1 60 0
  98 004e 9DF80B30 		ldrb	r3, [sp, #11]	@ zero_extendqisi2
  99 0052 172B     		cmp	r3, #23
 100 0054 2BD0     		beq	.L7
  61:LIS3DH_Registers.c ****     {
  62:LIS3DH_Registers.c ****         UART_PutString("\r\nWriting new values..\r\n");
 101              		.loc 1 62 0
 102 0056 A048     		ldr	r0, .L36+12
 103 0058 FFF7FEFF 		bl	UART_PutString
 104              	.LVL13:
  63:LIS3DH_Registers.c ****         
  64:LIS3DH_Registers.c ****         ctrl_reg1 = CTRL_REG_1_CONTENT;
 105              		.loc 1 64 0
ARM GAS  C:\Users\Vanessa Aloia.Vanessa\AppData\Local\Temp\cch06VrJ.s 			page 4


 106 005c 1722     		movs	r2, #23
 107 005e 8DF80B20 		strb	r2, [sp, #11]
  65:LIS3DH_Registers.c ****     
  66:LIS3DH_Registers.c ****         error = I2C_Peripheral_WriteRegister(LIS3DH_DEVICE_ADDRESS,
 108              		.loc 1 66 0
 109 0062 2021     		movs	r1, #32
 110 0064 1820     		movs	r0, #24
 111 0066 FFF7FEFF 		bl	I2C_Peripheral_WriteRegister
 112              	.LVL14:
  67:LIS3DH_Registers.c ****                                              CTRL_REG_1_ADDR,
  68:LIS3DH_Registers.c ****                                              ctrl_reg1);
  69:LIS3DH_Registers.c ****     
  70:LIS3DH_Registers.c ****         if (error == NO_ERROR)
 113              		.loc 1 70 0
 114 006a 48B9     		cbnz	r0, .L8
  71:LIS3DH_Registers.c ****         {
  72:LIS3DH_Registers.c ****             sprintf(message, "CONTROL REGISTER 1 successfully written as: 0x%02X\r\n", ctrl_reg1);
 115              		.loc 1 72 0
 116 006c 9DF80B20 		ldrb	r2, [sp, #11]	@ zero_extendqisi2
 117 0070 9A49     		ldr	r1, .L36+16
 118 0072 03A8     		add	r0, sp, #12
 119              	.LVL15:
 120 0074 FFF7FEFF 		bl	sprintf
 121              	.LVL16:
  73:LIS3DH_Registers.c ****             UART_PutString(message); 
 122              		.loc 1 73 0
 123 0078 03A8     		add	r0, sp, #12
 124 007a FFF7FEFF 		bl	UART_PutString
 125              	.LVL17:
 126 007e 02E0     		b	.L9
 127              	.LVL18:
 128              	.L8:
  74:LIS3DH_Registers.c ****         }
  75:LIS3DH_Registers.c ****         else
  76:LIS3DH_Registers.c ****         {
  77:LIS3DH_Registers.c ****             UART_PutString("Error occurred during I2C comm to set control register 1\r\n");   
 129              		.loc 1 77 0
 130 0080 9748     		ldr	r0, .L36+20
 131              	.LVL19:
 132 0082 FFF7FEFF 		bl	UART_PutString
 133              	.LVL20:
 134              	.L9:
  78:LIS3DH_Registers.c ****         }
  79:LIS3DH_Registers.c ****     
  80:LIS3DH_Registers.c ****     
  81:LIS3DH_Registers.c ****         /* Read Control Register 1 again to check for correct writing */
  82:LIS3DH_Registers.c ****         error = I2C_Peripheral_ReadRegister(LIS3DH_DEVICE_ADDRESS,
 135              		.loc 1 82 0
 136 0086 0DF10B02 		add	r2, sp, #11
 137 008a 2021     		movs	r1, #32
 138 008c 1820     		movs	r0, #24
 139 008e FFF7FEFF 		bl	I2C_Peripheral_ReadRegister
 140              	.LVL21:
  83:LIS3DH_Registers.c ****                                             CTRL_REG_1_ADDR,
  84:LIS3DH_Registers.c ****                                             &ctrl_reg1);
  85:LIS3DH_Registers.c ****         
  86:LIS3DH_Registers.c ****         if (error == NO_ERROR)
ARM GAS  C:\Users\Vanessa Aloia.Vanessa\AppData\Local\Temp\cch06VrJ.s 			page 5


 141              		.loc 1 86 0
 142 0092 48B9     		cbnz	r0, .L10
  87:LIS3DH_Registers.c ****         {
  88:LIS3DH_Registers.c ****             sprintf(message, "CONTROL REGISTER 1 after overwrite operation: 0x%02X\r\n", ctrl_reg1)
 143              		.loc 1 88 0
 144 0094 9DF80B20 		ldrb	r2, [sp, #11]	@ zero_extendqisi2
 145 0098 9249     		ldr	r1, .L36+24
 146 009a 03A8     		add	r0, sp, #12
 147              	.LVL22:
 148 009c FFF7FEFF 		bl	sprintf
 149              	.LVL23:
  89:LIS3DH_Registers.c ****             UART_PutString(message); 
 150              		.loc 1 89 0
 151 00a0 03A8     		add	r0, sp, #12
 152 00a2 FFF7FEFF 		bl	UART_PutString
 153              	.LVL24:
 154 00a6 02E0     		b	.L7
 155              	.LVL25:
 156              	.L10:
  90:LIS3DH_Registers.c ****         }
  91:LIS3DH_Registers.c ****         else
  92:LIS3DH_Registers.c ****         {
  93:LIS3DH_Registers.c ****             UART_PutString("Error occurred during I2C comm to read control register 1\r\n");   
 157              		.loc 1 93 0
 158 00a8 8A48     		ldr	r0, .L36+8
 159              	.LVL26:
 160 00aa FFF7FEFF 		bl	UART_PutString
 161              	.LVL27:
 162              	.L7:
  94:LIS3DH_Registers.c ****         }
  95:LIS3DH_Registers.c ****     }
  96:LIS3DH_Registers.c ****     
  97:LIS3DH_Registers.c ****     /* Read Control Register 4 */
  98:LIS3DH_Registers.c ****     uint8_t ctrl_reg4; 
  99:LIS3DH_Registers.c ****     error = I2C_Peripheral_ReadRegister(LIS3DH_DEVICE_ADDRESS,
 163              		.loc 1 99 0
 164 00ae 0DF10A02 		add	r2, sp, #10
 165 00b2 2321     		movs	r1, #35
 166 00b4 1820     		movs	r0, #24
 167 00b6 FFF7FEFF 		bl	I2C_Peripheral_ReadRegister
 168              	.LVL28:
 100:LIS3DH_Registers.c ****                                         CTRL_REG_4_ADDR,
 101:LIS3DH_Registers.c ****                                         &ctrl_reg4);
 102:LIS3DH_Registers.c ****     
 103:LIS3DH_Registers.c ****     if (error == NO_ERROR)
 169              		.loc 1 103 0
 170 00ba 48B9     		cbnz	r0, .L11
 104:LIS3DH_Registers.c ****     {
 105:LIS3DH_Registers.c ****         sprintf(message, "CONTROL REGISTER 4: 0x%02X\r\n", ctrl_reg4);
 171              		.loc 1 105 0
 172 00bc 9DF80A20 		ldrb	r2, [sp, #10]	@ zero_extendqisi2
 173 00c0 8949     		ldr	r1, .L36+28
 174 00c2 03A8     		add	r0, sp, #12
 175              	.LVL29:
 176 00c4 FFF7FEFF 		bl	sprintf
 177              	.LVL30:
 106:LIS3DH_Registers.c ****         UART_PutString(message); 
ARM GAS  C:\Users\Vanessa Aloia.Vanessa\AppData\Local\Temp\cch06VrJ.s 			page 6


 178              		.loc 1 106 0
 179 00c8 03A8     		add	r0, sp, #12
 180 00ca FFF7FEFF 		bl	UART_PutString
 181              	.LVL31:
 182 00ce 02E0     		b	.L12
 183              	.LVL32:
 184              	.L11:
 107:LIS3DH_Registers.c ****     }
 108:LIS3DH_Registers.c ****     else
 109:LIS3DH_Registers.c ****     {
 110:LIS3DH_Registers.c ****         UART_PutString("Error occurred during I2C comm to read control register 4\r\n");   
 185              		.loc 1 110 0
 186 00d0 8648     		ldr	r0, .L36+32
 187              	.LVL33:
 188 00d2 FFF7FEFF 		bl	UART_PutString
 189              	.LVL34:
 190              	.L12:
 111:LIS3DH_Registers.c ****     }
 112:LIS3DH_Registers.c ****     
 113:LIS3DH_Registers.c ****     /* Write Control Register 4 (only if the read content is not the desired one) */
 114:LIS3DH_Registers.c ****     if (ctrl_reg4 != CTRL_REG_4_CONTENT)  
 191              		.loc 1 114 0
 192 00d6 9DF80A30 		ldrb	r3, [sp, #10]	@ zero_extendqisi2
 193 00da 5BB3     		cbz	r3, .L13
 115:LIS3DH_Registers.c ****     {
 116:LIS3DH_Registers.c ****         UART_PutString("\r\nWriting new values..\r\n");
 194              		.loc 1 116 0
 195 00dc 7E48     		ldr	r0, .L36+12
 196 00de FFF7FEFF 		bl	UART_PutString
 197              	.LVL35:
 117:LIS3DH_Registers.c ****         
 118:LIS3DH_Registers.c ****         ctrl_reg4 = CTRL_REG_4_CONTENT;
 198              		.loc 1 118 0
 199 00e2 0022     		movs	r2, #0
 200 00e4 8DF80A20 		strb	r2, [sp, #10]
 119:LIS3DH_Registers.c ****     
 120:LIS3DH_Registers.c ****         error = I2C_Peripheral_WriteRegister(LIS3DH_DEVICE_ADDRESS,
 201              		.loc 1 120 0
 202 00e8 2321     		movs	r1, #35
 203 00ea 1820     		movs	r0, #24
 204 00ec FFF7FEFF 		bl	I2C_Peripheral_WriteRegister
 205              	.LVL36:
 121:LIS3DH_Registers.c ****                                              CTRL_REG_4_ADDR,
 122:LIS3DH_Registers.c ****                                              ctrl_reg4);
 123:LIS3DH_Registers.c ****     
 124:LIS3DH_Registers.c ****         if (error == NO_ERROR)
 206              		.loc 1 124 0
 207 00f0 48B9     		cbnz	r0, .L14
 125:LIS3DH_Registers.c ****         {
 126:LIS3DH_Registers.c ****             sprintf(message, "CONTROL REGISTER 4 successfully written as: 0x%02X\r\n", ctrl_reg4);
 208              		.loc 1 126 0
 209 00f2 9DF80A20 		ldrb	r2, [sp, #10]	@ zero_extendqisi2
 210 00f6 7E49     		ldr	r1, .L36+36
 211 00f8 03A8     		add	r0, sp, #12
 212              	.LVL37:
 213 00fa FFF7FEFF 		bl	sprintf
 214              	.LVL38:
ARM GAS  C:\Users\Vanessa Aloia.Vanessa\AppData\Local\Temp\cch06VrJ.s 			page 7


 127:LIS3DH_Registers.c ****             UART_PutString(message); 
 215              		.loc 1 127 0
 216 00fe 03A8     		add	r0, sp, #12
 217 0100 FFF7FEFF 		bl	UART_PutString
 218              	.LVL39:
 219 0104 02E0     		b	.L15
 220              	.LVL40:
 221              	.L14:
 128:LIS3DH_Registers.c ****         }
 129:LIS3DH_Registers.c ****         else
 130:LIS3DH_Registers.c ****         {
 131:LIS3DH_Registers.c ****             UART_PutString("Error occurred during I2C comm to set control register 4\r\n");   
 222              		.loc 1 131 0
 223 0106 7B48     		ldr	r0, .L36+40
 224              	.LVL41:
 225 0108 FFF7FEFF 		bl	UART_PutString
 226              	.LVL42:
 227              	.L15:
 132:LIS3DH_Registers.c ****         }
 133:LIS3DH_Registers.c ****     
 134:LIS3DH_Registers.c ****     
 135:LIS3DH_Registers.c ****         /* Read Control Register 4 again to check for correct writing */
 136:LIS3DH_Registers.c ****         error = I2C_Peripheral_ReadRegister(LIS3DH_DEVICE_ADDRESS,
 228              		.loc 1 136 0
 229 010c 0DF10A02 		add	r2, sp, #10
 230 0110 2321     		movs	r1, #35
 231 0112 1820     		movs	r0, #24
 232 0114 FFF7FEFF 		bl	I2C_Peripheral_ReadRegister
 233              	.LVL43:
 137:LIS3DH_Registers.c ****                                             CTRL_REG_4_ADDR,
 138:LIS3DH_Registers.c ****                                             &ctrl_reg4);
 139:LIS3DH_Registers.c ****         
 140:LIS3DH_Registers.c ****         if (error == NO_ERROR)
 234              		.loc 1 140 0
 235 0118 48B9     		cbnz	r0, .L16
 141:LIS3DH_Registers.c ****         {
 142:LIS3DH_Registers.c ****             sprintf(message, "CONTROL REGISTER 4 after overwrite operation: 0x%02X\r\n", ctrl_reg4)
 236              		.loc 1 142 0
 237 011a 9DF80A20 		ldrb	r2, [sp, #10]	@ zero_extendqisi2
 238 011e 7649     		ldr	r1, .L36+44
 239 0120 03A8     		add	r0, sp, #12
 240              	.LVL44:
 241 0122 FFF7FEFF 		bl	sprintf
 242              	.LVL45:
 143:LIS3DH_Registers.c ****             UART_PutString(message); 
 243              		.loc 1 143 0
 244 0126 03A8     		add	r0, sp, #12
 245 0128 FFF7FEFF 		bl	UART_PutString
 246              	.LVL46:
 247 012c 02E0     		b	.L13
 248              	.LVL47:
 249              	.L16:
 144:LIS3DH_Registers.c ****         }
 145:LIS3DH_Registers.c ****         else
 146:LIS3DH_Registers.c ****         {
 147:LIS3DH_Registers.c ****             UART_PutString("Error occurred during I2C comm to read control register 4\r\n");   
 250              		.loc 1 147 0
ARM GAS  C:\Users\Vanessa Aloia.Vanessa\AppData\Local\Temp\cch06VrJ.s 			page 8


 251 012e 6F48     		ldr	r0, .L36+32
 252              	.LVL48:
 253 0130 FFF7FEFF 		bl	UART_PutString
 254              	.LVL49:
 255              	.L13:
 148:LIS3DH_Registers.c ****         }
 149:LIS3DH_Registers.c ****     }    
 150:LIS3DH_Registers.c ****     
 151:LIS3DH_Registers.c ****     
 152:LIS3DH_Registers.c ****     /* Configuration of control registers 3 and 5 and fifo control register to enable FIFO in strea
 153:LIS3DH_Registers.c ****     /* See registers.h for single bits meaning */
 154:LIS3DH_Registers.c **** 
 155:LIS3DH_Registers.c ****     /* Read Control Register 3 */
 156:LIS3DH_Registers.c ****     uint8_t ctrl_reg3; 
 157:LIS3DH_Registers.c ****     error = I2C_Peripheral_ReadRegister(LIS3DH_DEVICE_ADDRESS,
 256              		.loc 1 157 0
 257 0134 0DF10902 		add	r2, sp, #9
 258 0138 2221     		movs	r1, #34
 259 013a 1820     		movs	r0, #24
 260 013c FFF7FEFF 		bl	I2C_Peripheral_ReadRegister
 261              	.LVL50:
 158:LIS3DH_Registers.c ****                                         CTRL_REG_3_ADDR,
 159:LIS3DH_Registers.c ****                                         &ctrl_reg3);
 160:LIS3DH_Registers.c ****     
 161:LIS3DH_Registers.c ****     if (error == NO_ERROR)
 262              		.loc 1 161 0
 263 0140 48B9     		cbnz	r0, .L17
 162:LIS3DH_Registers.c ****     {
 163:LIS3DH_Registers.c ****         sprintf(message, "CONTROL REGISTER 3: 0x%02X\r\n", ctrl_reg3);
 264              		.loc 1 163 0
 265 0142 9DF80920 		ldrb	r2, [sp, #9]	@ zero_extendqisi2
 266 0146 6D49     		ldr	r1, .L36+48
 267 0148 03A8     		add	r0, sp, #12
 268              	.LVL51:
 269 014a FFF7FEFF 		bl	sprintf
 270              	.LVL52:
 164:LIS3DH_Registers.c ****         UART_PutString(message); 
 271              		.loc 1 164 0
 272 014e 03A8     		add	r0, sp, #12
 273 0150 FFF7FEFF 		bl	UART_PutString
 274              	.LVL53:
 275 0154 02E0     		b	.L18
 276              	.LVL54:
 277              	.L17:
 165:LIS3DH_Registers.c ****     }
 166:LIS3DH_Registers.c ****     else
 167:LIS3DH_Registers.c ****     {
 168:LIS3DH_Registers.c ****         UART_PutString("Error occurred during I2C comm to read control register 3\r\n");   
 278              		.loc 1 168 0
 279 0156 6A48     		ldr	r0, .L36+52
 280              	.LVL55:
 281 0158 FFF7FEFF 		bl	UART_PutString
 282              	.LVL56:
 283              	.L18:
 169:LIS3DH_Registers.c ****     }
 170:LIS3DH_Registers.c ****     
 171:LIS3DH_Registers.c ****     /* Write Control Register 3 (only if the read content is not the desired one) */
ARM GAS  C:\Users\Vanessa Aloia.Vanessa\AppData\Local\Temp\cch06VrJ.s 			page 9


 172:LIS3DH_Registers.c ****     if (ctrl_reg3 != CTRL_REG_3_CONTENT)  
 284              		.loc 1 172 0
 285 015c 9DF80930 		ldrb	r3, [sp, #9]	@ zero_extendqisi2
 286 0160 042B     		cmp	r3, #4
 287 0162 2BD0     		beq	.L19
 173:LIS3DH_Registers.c ****     {
 174:LIS3DH_Registers.c ****         UART_PutString("\r\nWriting new values..\r\n");
 288              		.loc 1 174 0
 289 0164 5C48     		ldr	r0, .L36+12
 290 0166 FFF7FEFF 		bl	UART_PutString
 291              	.LVL57:
 175:LIS3DH_Registers.c ****         
 176:LIS3DH_Registers.c ****         ctrl_reg3 = CTRL_REG_3_CONTENT;
 292              		.loc 1 176 0
 293 016a 0422     		movs	r2, #4
 294 016c 8DF80920 		strb	r2, [sp, #9]
 177:LIS3DH_Registers.c ****     
 178:LIS3DH_Registers.c ****         error = I2C_Peripheral_WriteRegister(LIS3DH_DEVICE_ADDRESS,
 295              		.loc 1 178 0
 296 0170 2221     		movs	r1, #34
 297 0172 1820     		movs	r0, #24
 298 0174 FFF7FEFF 		bl	I2C_Peripheral_WriteRegister
 299              	.LVL58:
 179:LIS3DH_Registers.c ****                                              CTRL_REG_3_ADDR,
 180:LIS3DH_Registers.c ****                                              ctrl_reg3);
 181:LIS3DH_Registers.c ****     
 182:LIS3DH_Registers.c ****         if (error == NO_ERROR)
 300              		.loc 1 182 0
 301 0178 48B9     		cbnz	r0, .L20
 183:LIS3DH_Registers.c ****         {
 184:LIS3DH_Registers.c ****             sprintf(message, "CONTROL REGISTER 3 successfully written as: 0x%02X\r\n", ctrl_reg3);
 302              		.loc 1 184 0
 303 017a 9DF80920 		ldrb	r2, [sp, #9]	@ zero_extendqisi2
 304 017e 6149     		ldr	r1, .L36+56
 305 0180 03A8     		add	r0, sp, #12
 306              	.LVL59:
 307 0182 FFF7FEFF 		bl	sprintf
 308              	.LVL60:
 185:LIS3DH_Registers.c ****             UART_PutString(message); 
 309              		.loc 1 185 0
 310 0186 03A8     		add	r0, sp, #12
 311 0188 FFF7FEFF 		bl	UART_PutString
 312              	.LVL61:
 313 018c 02E0     		b	.L21
 314              	.LVL62:
 315              	.L20:
 186:LIS3DH_Registers.c ****         }
 187:LIS3DH_Registers.c ****         else
 188:LIS3DH_Registers.c ****         {
 189:LIS3DH_Registers.c ****             UART_PutString("Error occurred during I2C comm to set control register 3\r\n");   
 316              		.loc 1 189 0
 317 018e 5E48     		ldr	r0, .L36+60
 318              	.LVL63:
 319 0190 FFF7FEFF 		bl	UART_PutString
 320              	.LVL64:
 321              	.L21:
 190:LIS3DH_Registers.c ****         }
ARM GAS  C:\Users\Vanessa Aloia.Vanessa\AppData\Local\Temp\cch06VrJ.s 			page 10


 191:LIS3DH_Registers.c ****     
 192:LIS3DH_Registers.c ****     
 193:LIS3DH_Registers.c ****         /* Read Control Register 3 again to check for correct writing */
 194:LIS3DH_Registers.c ****         error = I2C_Peripheral_ReadRegister(LIS3DH_DEVICE_ADDRESS,
 322              		.loc 1 194 0
 323 0194 0DF10902 		add	r2, sp, #9
 324 0198 2221     		movs	r1, #34
 325 019a 1820     		movs	r0, #24
 326 019c FFF7FEFF 		bl	I2C_Peripheral_ReadRegister
 327              	.LVL65:
 195:LIS3DH_Registers.c ****                                             CTRL_REG_3_ADDR,
 196:LIS3DH_Registers.c ****                                             &ctrl_reg3);
 197:LIS3DH_Registers.c ****         
 198:LIS3DH_Registers.c ****         if (error == NO_ERROR)
 328              		.loc 1 198 0
 329 01a0 48B9     		cbnz	r0, .L22
 199:LIS3DH_Registers.c ****         {
 200:LIS3DH_Registers.c ****             sprintf(message, "CONTROL REGISTER 3 after overwrite operation: 0x%02X\r\n", ctrl_reg3)
 330              		.loc 1 200 0
 331 01a2 9DF80920 		ldrb	r2, [sp, #9]	@ zero_extendqisi2
 332 01a6 5949     		ldr	r1, .L36+64
 333 01a8 03A8     		add	r0, sp, #12
 334              	.LVL66:
 335 01aa FFF7FEFF 		bl	sprintf
 336              	.LVL67:
 201:LIS3DH_Registers.c ****             UART_PutString(message); 
 337              		.loc 1 201 0
 338 01ae 03A8     		add	r0, sp, #12
 339 01b0 FFF7FEFF 		bl	UART_PutString
 340              	.LVL68:
 341 01b4 02E0     		b	.L19
 342              	.LVL69:
 343              	.L22:
 202:LIS3DH_Registers.c ****         }
 203:LIS3DH_Registers.c ****         else
 204:LIS3DH_Registers.c ****         {
 205:LIS3DH_Registers.c ****             UART_PutString("Error occurred during I2C comm to read control register 3\r\n");   
 344              		.loc 1 205 0
 345 01b6 5248     		ldr	r0, .L36+52
 346              	.LVL70:
 347 01b8 FFF7FEFF 		bl	UART_PutString
 348              	.LVL71:
 349              	.L19:
 206:LIS3DH_Registers.c ****         }
 207:LIS3DH_Registers.c ****     } 
 208:LIS3DH_Registers.c **** 
 209:LIS3DH_Registers.c ****     /* Read Control Register 5 */
 210:LIS3DH_Registers.c ****     uint8_t ctrl_reg5; 
 211:LIS3DH_Registers.c ****     error = I2C_Peripheral_ReadRegister(LIS3DH_DEVICE_ADDRESS,
 350              		.loc 1 211 0
 351 01bc 02AA     		add	r2, sp, #8
 352 01be 2421     		movs	r1, #36
 353 01c0 1820     		movs	r0, #24
 354 01c2 FFF7FEFF 		bl	I2C_Peripheral_ReadRegister
 355              	.LVL72:
 212:LIS3DH_Registers.c ****                                         CTRL_REG_5_ADDR,
 213:LIS3DH_Registers.c ****                                         &ctrl_reg5);
ARM GAS  C:\Users\Vanessa Aloia.Vanessa\AppData\Local\Temp\cch06VrJ.s 			page 11


 214:LIS3DH_Registers.c ****     
 215:LIS3DH_Registers.c ****     if (error == NO_ERROR)
 356              		.loc 1 215 0
 357 01c6 48B9     		cbnz	r0, .L23
 216:LIS3DH_Registers.c ****     {
 217:LIS3DH_Registers.c ****         sprintf(message, "CONTROL REGISTER 5: 0x%02X\r\n", ctrl_reg5);
 358              		.loc 1 217 0
 359 01c8 9DF80820 		ldrb	r2, [sp, #8]	@ zero_extendqisi2
 360 01cc 5049     		ldr	r1, .L36+68
 361 01ce 03A8     		add	r0, sp, #12
 362              	.LVL73:
 363 01d0 FFF7FEFF 		bl	sprintf
 364              	.LVL74:
 218:LIS3DH_Registers.c ****         UART_PutString(message); 
 365              		.loc 1 218 0
 366 01d4 03A8     		add	r0, sp, #12
 367 01d6 FFF7FEFF 		bl	UART_PutString
 368              	.LVL75:
 369 01da 02E0     		b	.L24
 370              	.LVL76:
 371              	.L23:
 219:LIS3DH_Registers.c ****     }
 220:LIS3DH_Registers.c ****     else
 221:LIS3DH_Registers.c ****     {
 222:LIS3DH_Registers.c ****         UART_PutString("Error occurred during I2C comm to read control register 5\r\n");   
 372              		.loc 1 222 0
 373 01dc 4D48     		ldr	r0, .L36+72
 374              	.LVL77:
 375 01de FFF7FEFF 		bl	UART_PutString
 376              	.LVL78:
 377              	.L24:
 223:LIS3DH_Registers.c ****     }
 224:LIS3DH_Registers.c ****     
 225:LIS3DH_Registers.c ****     /* Write Control Register 5 (only if the read content is not the desired one) */
 226:LIS3DH_Registers.c ****     if (ctrl_reg5 != CTRL_REG_5_CONTENT)  
 378              		.loc 1 226 0
 379 01e2 9DF80830 		ldrb	r3, [sp, #8]	@ zero_extendqisi2
 380 01e6 402B     		cmp	r3, #64
 381 01e8 2AD0     		beq	.L25
 227:LIS3DH_Registers.c ****     {
 228:LIS3DH_Registers.c ****         UART_PutString("\r\nWriting new values..\r\n");
 382              		.loc 1 228 0
 383 01ea 3B48     		ldr	r0, .L36+12
 384 01ec FFF7FEFF 		bl	UART_PutString
 385              	.LVL79:
 229:LIS3DH_Registers.c ****         
 230:LIS3DH_Registers.c ****         ctrl_reg5 = CTRL_REG_5_CONTENT;
 386              		.loc 1 230 0
 387 01f0 4022     		movs	r2, #64
 388 01f2 8DF80820 		strb	r2, [sp, #8]
 231:LIS3DH_Registers.c ****     
 232:LIS3DH_Registers.c ****         error = I2C_Peripheral_WriteRegister(LIS3DH_DEVICE_ADDRESS,
 389              		.loc 1 232 0
 390 01f6 2421     		movs	r1, #36
 391 01f8 1820     		movs	r0, #24
 392 01fa FFF7FEFF 		bl	I2C_Peripheral_WriteRegister
 393              	.LVL80:
ARM GAS  C:\Users\Vanessa Aloia.Vanessa\AppData\Local\Temp\cch06VrJ.s 			page 12


 233:LIS3DH_Registers.c ****                                              CTRL_REG_5_ADDR,
 234:LIS3DH_Registers.c ****                                              ctrl_reg5);
 235:LIS3DH_Registers.c ****     
 236:LIS3DH_Registers.c ****         if (error == NO_ERROR)
 394              		.loc 1 236 0
 395 01fe 48B9     		cbnz	r0, .L26
 237:LIS3DH_Registers.c ****         {
 238:LIS3DH_Registers.c ****             sprintf(message, "CONTROL REGISTER 5 successfully written as: 0x%02X\r\n", ctrl_reg5);
 396              		.loc 1 238 0
 397 0200 9DF80820 		ldrb	r2, [sp, #8]	@ zero_extendqisi2
 398 0204 4449     		ldr	r1, .L36+76
 399 0206 03A8     		add	r0, sp, #12
 400              	.LVL81:
 401 0208 FFF7FEFF 		bl	sprintf
 402              	.LVL82:
 239:LIS3DH_Registers.c ****             UART_PutString(message); 
 403              		.loc 1 239 0
 404 020c 03A8     		add	r0, sp, #12
 405 020e FFF7FEFF 		bl	UART_PutString
 406              	.LVL83:
 407 0212 02E0     		b	.L27
 408              	.LVL84:
 409              	.L26:
 240:LIS3DH_Registers.c ****         }
 241:LIS3DH_Registers.c ****         else
 242:LIS3DH_Registers.c ****         {
 243:LIS3DH_Registers.c ****             UART_PutString("Error occurred during I2C comm to set control register 5\r\n");   
 410              		.loc 1 243 0
 411 0214 4148     		ldr	r0, .L36+80
 412              	.LVL85:
 413 0216 FFF7FEFF 		bl	UART_PutString
 414              	.LVL86:
 415              	.L27:
 244:LIS3DH_Registers.c ****         }
 245:LIS3DH_Registers.c ****     
 246:LIS3DH_Registers.c ****     
 247:LIS3DH_Registers.c ****         /* Read Control Register 5 again to check for correct writing */
 248:LIS3DH_Registers.c ****         error = I2C_Peripheral_ReadRegister(LIS3DH_DEVICE_ADDRESS,
 416              		.loc 1 248 0
 417 021a 02AA     		add	r2, sp, #8
 418 021c 2421     		movs	r1, #36
 419 021e 1820     		movs	r0, #24
 420 0220 FFF7FEFF 		bl	I2C_Peripheral_ReadRegister
 421              	.LVL87:
 249:LIS3DH_Registers.c ****                                             CTRL_REG_5_ADDR,
 250:LIS3DH_Registers.c ****                                             &ctrl_reg5);
 251:LIS3DH_Registers.c ****         
 252:LIS3DH_Registers.c ****         if (error == NO_ERROR)
 422              		.loc 1 252 0
 423 0224 48B9     		cbnz	r0, .L28
 253:LIS3DH_Registers.c ****         {
 254:LIS3DH_Registers.c ****             sprintf(message, "CONTROL REGISTER 5 after overwrite operation: 0x%02X\r\n", ctrl_reg5)
 424              		.loc 1 254 0
 425 0226 9DF80820 		ldrb	r2, [sp, #8]	@ zero_extendqisi2
 426 022a 3D49     		ldr	r1, .L36+84
 427 022c 03A8     		add	r0, sp, #12
 428              	.LVL88:
ARM GAS  C:\Users\Vanessa Aloia.Vanessa\AppData\Local\Temp\cch06VrJ.s 			page 13


 429 022e FFF7FEFF 		bl	sprintf
 430              	.LVL89:
 255:LIS3DH_Registers.c ****             UART_PutString(message); 
 431              		.loc 1 255 0
 432 0232 03A8     		add	r0, sp, #12
 433 0234 FFF7FEFF 		bl	UART_PutString
 434              	.LVL90:
 435 0238 02E0     		b	.L25
 436              	.LVL91:
 437              	.L28:
 256:LIS3DH_Registers.c ****         }
 257:LIS3DH_Registers.c ****         else
 258:LIS3DH_Registers.c ****         {
 259:LIS3DH_Registers.c ****             UART_PutString("Error occurred during I2C comm to read control register 5\r\n");   
 438              		.loc 1 259 0
 439 023a 3648     		ldr	r0, .L36+72
 440              	.LVL92:
 441 023c FFF7FEFF 		bl	UART_PutString
 442              	.LVL93:
 443              	.L25:
 260:LIS3DH_Registers.c ****         }
 261:LIS3DH_Registers.c ****     }
 262:LIS3DH_Registers.c ****     
 263:LIS3DH_Registers.c ****     /* Read Fifo Control Register */
 264:LIS3DH_Registers.c ****     uint8_t fifo_ctrl_reg; 
 265:LIS3DH_Registers.c ****     error = I2C_Peripheral_ReadRegister(LIS3DH_DEVICE_ADDRESS,
 444              		.loc 1 265 0
 445 0240 0DF10702 		add	r2, sp, #7
 446 0244 2E21     		movs	r1, #46
 447 0246 1820     		movs	r0, #24
 448 0248 FFF7FEFF 		bl	I2C_Peripheral_ReadRegister
 449              	.LVL94:
 266:LIS3DH_Registers.c ****                                         FIFO_CTRL_REG_ADDR,
 267:LIS3DH_Registers.c ****                                         &fifo_ctrl_reg);
 268:LIS3DH_Registers.c ****     
 269:LIS3DH_Registers.c ****     if (error == NO_ERROR)
 450              		.loc 1 269 0
 451 024c 48B9     		cbnz	r0, .L29
 270:LIS3DH_Registers.c ****     {
 271:LIS3DH_Registers.c ****         sprintf(message, "FIFO CONTROL REGISTER: 0x%02X\r\n", fifo_ctrl_reg);
 452              		.loc 1 271 0
 453 024e 9DF80720 		ldrb	r2, [sp, #7]	@ zero_extendqisi2
 454 0252 3449     		ldr	r1, .L36+88
 455 0254 03A8     		add	r0, sp, #12
 456              	.LVL95:
 457 0256 FFF7FEFF 		bl	sprintf
 458              	.LVL96:
 272:LIS3DH_Registers.c ****         UART_PutString(message); 
 459              		.loc 1 272 0
 460 025a 03A8     		add	r0, sp, #12
 461 025c FFF7FEFF 		bl	UART_PutString
 462              	.LVL97:
 463 0260 02E0     		b	.L30
 464              	.LVL98:
 465              	.L29:
 273:LIS3DH_Registers.c ****     }
 274:LIS3DH_Registers.c ****     else
ARM GAS  C:\Users\Vanessa Aloia.Vanessa\AppData\Local\Temp\cch06VrJ.s 			page 14


 275:LIS3DH_Registers.c ****     {
 276:LIS3DH_Registers.c ****         UART_PutString("Error occurred during I2C comm to read fifo control register \r\n");   
 466              		.loc 1 276 0
 467 0262 3148     		ldr	r0, .L36+92
 468              	.LVL99:
 469 0264 FFF7FEFF 		bl	UART_PutString
 470              	.LVL100:
 471              	.L30:
 277:LIS3DH_Registers.c ****     }
 278:LIS3DH_Registers.c ****     
 279:LIS3DH_Registers.c ****     /* Write Fifo Control Register (only if the read content is not the desired one) */
 280:LIS3DH_Registers.c ****     if (fifo_ctrl_reg != FIFO_CTRL_REG_CONTENT)  
 472              		.loc 1 280 0
 473 0268 9DF80730 		ldrb	r3, [sp, #7]	@ zero_extendqisi2
 474 026c 9F2B     		cmp	r3, #159
 475 026e 2BD0     		beq	.L1
 281:LIS3DH_Registers.c ****     {
 282:LIS3DH_Registers.c ****         UART_PutString("\r\nWriting new values..\r\n");
 476              		.loc 1 282 0
 477 0270 1948     		ldr	r0, .L36+12
 478 0272 FFF7FEFF 		bl	UART_PutString
 479              	.LVL101:
 283:LIS3DH_Registers.c ****         
 284:LIS3DH_Registers.c ****         fifo_ctrl_reg = FIFO_CTRL_REG_CONTENT;
 480              		.loc 1 284 0
 481 0276 9F22     		movs	r2, #159
 482 0278 8DF80720 		strb	r2, [sp, #7]
 285:LIS3DH_Registers.c ****     
 286:LIS3DH_Registers.c ****         error = I2C_Peripheral_WriteRegister(LIS3DH_DEVICE_ADDRESS,
 483              		.loc 1 286 0
 484 027c 2E21     		movs	r1, #46
 485 027e 1820     		movs	r0, #24
 486 0280 FFF7FEFF 		bl	I2C_Peripheral_WriteRegister
 487              	.LVL102:
 287:LIS3DH_Registers.c ****                                              FIFO_CTRL_REG_ADDR,
 288:LIS3DH_Registers.c ****                                              fifo_ctrl_reg);
 289:LIS3DH_Registers.c ****     
 290:LIS3DH_Registers.c ****         if (error == NO_ERROR)
 488              		.loc 1 290 0
 489 0284 48B9     		cbnz	r0, .L32
 291:LIS3DH_Registers.c ****         {
 292:LIS3DH_Registers.c ****             sprintf(message, "FIFO CONTROL REGISTER successfully written as: 0x%02X\r\n", fifo_ctrl
 490              		.loc 1 292 0
 491 0286 9DF80720 		ldrb	r2, [sp, #7]	@ zero_extendqisi2
 492 028a 2849     		ldr	r1, .L36+96
 493 028c 03A8     		add	r0, sp, #12
 494              	.LVL103:
 495 028e FFF7FEFF 		bl	sprintf
 496              	.LVL104:
 293:LIS3DH_Registers.c ****             UART_PutString(message); 
 497              		.loc 1 293 0
 498 0292 03A8     		add	r0, sp, #12
 499 0294 FFF7FEFF 		bl	UART_PutString
 500              	.LVL105:
 501 0298 02E0     		b	.L33
 502              	.LVL106:
 503              	.L32:
ARM GAS  C:\Users\Vanessa Aloia.Vanessa\AppData\Local\Temp\cch06VrJ.s 			page 15


 294:LIS3DH_Registers.c ****         }
 295:LIS3DH_Registers.c ****         else
 296:LIS3DH_Registers.c ****         {
 297:LIS3DH_Registers.c ****             UART_PutString("Error occurred during I2C comm to set fifo control register \r\n");   
 504              		.loc 1 297 0
 505 029a 2548     		ldr	r0, .L36+100
 506              	.LVL107:
 507 029c FFF7FEFF 		bl	UART_PutString
 508              	.LVL108:
 509              	.L33:
 298:LIS3DH_Registers.c ****         }
 299:LIS3DH_Registers.c ****     
 300:LIS3DH_Registers.c ****     
 301:LIS3DH_Registers.c ****         /* Read Fifo Control Register again to check for correct writing */
 302:LIS3DH_Registers.c ****         error = I2C_Peripheral_ReadRegister(LIS3DH_DEVICE_ADDRESS,
 510              		.loc 1 302 0
 511 02a0 0DF10702 		add	r2, sp, #7
 512 02a4 2E21     		movs	r1, #46
 513 02a6 1820     		movs	r0, #24
 514 02a8 FFF7FEFF 		bl	I2C_Peripheral_ReadRegister
 515              	.LVL109:
 303:LIS3DH_Registers.c ****                                             FIFO_CTRL_REG_ADDR,
 304:LIS3DH_Registers.c ****                                             &fifo_ctrl_reg);
 305:LIS3DH_Registers.c ****         
 306:LIS3DH_Registers.c ****         if (error == NO_ERROR)
 516              		.loc 1 306 0
 517 02ac 48B9     		cbnz	r0, .L34
 307:LIS3DH_Registers.c ****         {
 308:LIS3DH_Registers.c ****             sprintf(message, "FIFO CONTROL REGISTER after overwrite operation: 0x%02X\r\n", fifo_ct
 518              		.loc 1 308 0
 519 02ae 9DF80720 		ldrb	r2, [sp, #7]	@ zero_extendqisi2
 520 02b2 2049     		ldr	r1, .L36+104
 521 02b4 03A8     		add	r0, sp, #12
 522              	.LVL110:
 523 02b6 FFF7FEFF 		bl	sprintf
 524              	.LVL111:
 309:LIS3DH_Registers.c ****             UART_PutString(message); 
 525              		.loc 1 309 0
 526 02ba 03A8     		add	r0, sp, #12
 527 02bc FFF7FEFF 		bl	UART_PutString
 528              	.LVL112:
 529 02c0 02E0     		b	.L1
 530              	.LVL113:
 531              	.L34:
 310:LIS3DH_Registers.c ****         }
 311:LIS3DH_Registers.c ****         else
 312:LIS3DH_Registers.c ****         {
 313:LIS3DH_Registers.c ****             UART_PutString("Error occurred during I2C comm to read fifo control register \r\n");   
 532              		.loc 1 313 0
 533 02c2 1948     		ldr	r0, .L36+92
 534              	.LVL114:
 535 02c4 FFF7FEFF 		bl	UART_PutString
 536              	.LVL115:
 537              	.L1:
 314:LIS3DH_Registers.c ****         }
 315:LIS3DH_Registers.c ****     }   
 316:LIS3DH_Registers.c **** }
ARM GAS  C:\Users\Vanessa Aloia.Vanessa\AppData\Local\Temp\cch06VrJ.s 			page 16


 538              		.loc 1 316 0
 539 02c8 10B0     		add	sp, sp, #64
 540              		.cfi_def_cfa_offset 8
 541              		@ sp needed
 542 02ca 10BD     		pop	{r4, pc}
 543              	.LVL116:
 544              	.L37:
 545              		.align	2
 546              	.L36:
 547 02cc 00000000 		.word	.LC0
 548 02d0 20000000 		.word	.LC1
 549 02d4 40000000 		.word	.LC2
 550 02d8 7C000000 		.word	.LC3
 551 02dc 98000000 		.word	.LC4
 552 02e0 D0000000 		.word	.LC5
 553 02e4 0C010000 		.word	.LC6
 554 02e8 44010000 		.word	.LC7
 555 02ec 64010000 		.word	.LC8
 556 02f0 A0010000 		.word	.LC9
 557 02f4 D8010000 		.word	.LC10
 558 02f8 14020000 		.word	.LC11
 559 02fc 4C020000 		.word	.LC12
 560 0300 6C020000 		.word	.LC13
 561 0304 A8020000 		.word	.LC14
 562 0308 E0020000 		.word	.LC15
 563 030c 1C030000 		.word	.LC16
 564 0310 54030000 		.word	.LC17
 565 0314 74030000 		.word	.LC18
 566 0318 B0030000 		.word	.LC19
 567 031c E8030000 		.word	.LC20
 568 0320 24040000 		.word	.LC21
 569 0324 5C040000 		.word	.LC22
 570 0328 7C040000 		.word	.LC23
 571 032c BC040000 		.word	.LC24
 572 0330 F4040000 		.word	.LC25
 573 0334 34050000 		.word	.LC26
 574              		.cfi_endproc
 575              	.LFE64:
 576              		.size	Accelerometer_Configuration, .-Accelerometer_Configuration
 577              		.section	.rodata.str1.4,"aMS",%progbits,1
 578              		.align	2
 579              	.LC0:
 580 0000 44657669 		.ascii	"Device 0x%02X is connected\015\012\000"
 580      63652030 
 580      78253032 
 580      58206973 
 580      20636F6E 
 581 001d 000000   		.space	3
 582              	.LC1:
 583 0020 434F4E54 		.ascii	"CONTROL REGISTER 1: 0x%02X\015\012\000"
 583      524F4C20 
 583      52454749 
 583      53544552 
 583      20313A20 
 584 003d 000000   		.space	3
 585              	.LC2:
 586 0040 4572726F 		.ascii	"Error occurred during I2C comm to read control regi"
ARM GAS  C:\Users\Vanessa Aloia.Vanessa\AppData\Local\Temp\cch06VrJ.s 			page 17


 586      72206F63 
 586      63757272 
 586      65642064 
 586      7572696E 
 587 0073 73746572 		.ascii	"ster 1\015\012\000"
 587      20310D0A 
 587      00
 588              	.LC3:
 589 007c 0D0A5772 		.ascii	"\015\012Writing new values..\015\012\000"
 589      6974696E 
 589      67206E65 
 589      77207661 
 589      6C756573 
 590 0095 000000   		.space	3
 591              	.LC4:
 592 0098 434F4E54 		.ascii	"CONTROL REGISTER 1 successfully written as: 0x%02X\015"
 592      524F4C20 
 592      52454749 
 592      53544552 
 592      20312073 
 593 00cb 0A00     		.ascii	"\012\000"
 594 00cd 000000   		.space	3
 595              	.LC5:
 596 00d0 4572726F 		.ascii	"Error occurred during I2C comm to set control regis"
 596      72206F63 
 596      63757272 
 596      65642064 
 596      7572696E 
 597 0103 74657220 		.ascii	"ter 1\015\012\000"
 597      310D0A00 
 598 010b 00       		.space	1
 599              	.LC6:
 600 010c 434F4E54 		.ascii	"CONTROL REGISTER 1 after overwrite operation: 0x%02"
 600      524F4C20 
 600      52454749 
 600      53544552 
 600      20312061 
 601 013f 580D0A00 		.ascii	"X\015\012\000"
 602 0143 00       		.space	1
 603              	.LC7:
 604 0144 434F4E54 		.ascii	"CONTROL REGISTER 4: 0x%02X\015\012\000"
 604      524F4C20 
 604      52454749 
 604      53544552 
 604      20343A20 
 605 0161 000000   		.space	3
 606              	.LC8:
 607 0164 4572726F 		.ascii	"Error occurred during I2C comm to read control regi"
 607      72206F63 
 607      63757272 
 607      65642064 
 607      7572696E 
 608 0197 73746572 		.ascii	"ster 4\015\012\000"
 608      20340D0A 
 608      00
 609              	.LC9:
 610 01a0 434F4E54 		.ascii	"CONTROL REGISTER 4 successfully written as: 0x%02X\015"
ARM GAS  C:\Users\Vanessa Aloia.Vanessa\AppData\Local\Temp\cch06VrJ.s 			page 18


 610      524F4C20 
 610      52454749 
 610      53544552 
 610      20342073 
 611 01d3 0A00     		.ascii	"\012\000"
 612 01d5 000000   		.space	3
 613              	.LC10:
 614 01d8 4572726F 		.ascii	"Error occurred during I2C comm to set control regis"
 614      72206F63 
 614      63757272 
 614      65642064 
 614      7572696E 
 615 020b 74657220 		.ascii	"ter 4\015\012\000"
 615      340D0A00 
 616 0213 00       		.space	1
 617              	.LC11:
 618 0214 434F4E54 		.ascii	"CONTROL REGISTER 4 after overwrite operation: 0x%02"
 618      524F4C20 
 618      52454749 
 618      53544552 
 618      20342061 
 619 0247 580D0A00 		.ascii	"X\015\012\000"
 620 024b 00       		.space	1
 621              	.LC12:
 622 024c 434F4E54 		.ascii	"CONTROL REGISTER 3: 0x%02X\015\012\000"
 622      524F4C20 
 622      52454749 
 622      53544552 
 622      20333A20 
 623 0269 000000   		.space	3
 624              	.LC13:
 625 026c 4572726F 		.ascii	"Error occurred during I2C comm to read control regi"
 625      72206F63 
 625      63757272 
 625      65642064 
 625      7572696E 
 626 029f 73746572 		.ascii	"ster 3\015\012\000"
 626      20330D0A 
 626      00
 627              	.LC14:
 628 02a8 434F4E54 		.ascii	"CONTROL REGISTER 3 successfully written as: 0x%02X\015"
 628      524F4C20 
 628      52454749 
 628      53544552 
 628      20332073 
 629 02db 0A00     		.ascii	"\012\000"
 630 02dd 000000   		.space	3
 631              	.LC15:
 632 02e0 4572726F 		.ascii	"Error occurred during I2C comm to set control regis"
 632      72206F63 
 632      63757272 
 632      65642064 
 632      7572696E 
 633 0313 74657220 		.ascii	"ter 3\015\012\000"
 633      330D0A00 
 634 031b 00       		.space	1
 635              	.LC16:
ARM GAS  C:\Users\Vanessa Aloia.Vanessa\AppData\Local\Temp\cch06VrJ.s 			page 19


 636 031c 434F4E54 		.ascii	"CONTROL REGISTER 3 after overwrite operation: 0x%02"
 636      524F4C20 
 636      52454749 
 636      53544552 
 636      20332061 
 637 034f 580D0A00 		.ascii	"X\015\012\000"
 638 0353 00       		.space	1
 639              	.LC17:
 640 0354 434F4E54 		.ascii	"CONTROL REGISTER 5: 0x%02X\015\012\000"
 640      524F4C20 
 640      52454749 
 640      53544552 
 640      20353A20 
 641 0371 000000   		.space	3
 642              	.LC18:
 643 0374 4572726F 		.ascii	"Error occurred during I2C comm to read control regi"
 643      72206F63 
 643      63757272 
 643      65642064 
 643      7572696E 
 644 03a7 73746572 		.ascii	"ster 5\015\012\000"
 644      20350D0A 
 644      00
 645              	.LC19:
 646 03b0 434F4E54 		.ascii	"CONTROL REGISTER 5 successfully written as: 0x%02X\015"
 646      524F4C20 
 646      52454749 
 646      53544552 
 646      20352073 
 647 03e3 0A00     		.ascii	"\012\000"
 648 03e5 000000   		.space	3
 649              	.LC20:
 650 03e8 4572726F 		.ascii	"Error occurred during I2C comm to set control regis"
 650      72206F63 
 650      63757272 
 650      65642064 
 650      7572696E 
 651 041b 74657220 		.ascii	"ter 5\015\012\000"
 651      350D0A00 
 652 0423 00       		.space	1
 653              	.LC21:
 654 0424 434F4E54 		.ascii	"CONTROL REGISTER 5 after overwrite operation: 0x%02"
 654      524F4C20 
 654      52454749 
 654      53544552 
 654      20352061 
 655 0457 580D0A00 		.ascii	"X\015\012\000"
 656 045b 00       		.space	1
 657              	.LC22:
 658 045c 4649464F 		.ascii	"FIFO CONTROL REGISTER: 0x%02X\015\012\000"
 658      20434F4E 
 658      54524F4C 
 658      20524547 
 658      49535445 
 659              	.LC23:
 660 047c 4572726F 		.ascii	"Error occurred during I2C comm to read fifo control"
 660      72206F63 
ARM GAS  C:\Users\Vanessa Aloia.Vanessa\AppData\Local\Temp\cch06VrJ.s 			page 20


 660      63757272 
 660      65642064 
 660      7572696E 
 661 04af 20726567 		.ascii	" register \015\012\000"
 661      69737465 
 661      72200D0A 
 661      00
 662              	.LC24:
 663 04bc 4649464F 		.ascii	"FIFO CONTROL REGISTER successfully written as: 0x%0"
 663      20434F4E 
 663      54524F4C 
 663      20524547 
 663      49535445 
 664 04ef 32580D0A 		.ascii	"2X\015\012\000"
 664      00
 665              	.LC25:
 666 04f4 4572726F 		.ascii	"Error occurred during I2C comm to set fifo control "
 666      72206F63 
 666      63757272 
 666      65642064 
 666      7572696E 
 667 0527 72656769 		.ascii	"register \015\012\000"
 667      73746572 
 667      200D0A00 
 668 0533 00       		.space	1
 669              	.LC26:
 670 0534 4649464F 		.ascii	"FIFO CONTROL REGISTER after overwrite operation: 0x"
 670      20434F4E 
 670      54524F4C 
 670      20524547 
 670      49535445 
 671 0567 25303258 		.ascii	"%02X\015\012\000"
 671      0D0A00
 672              		.text
 673              	.Letext0:
 674              		.file 2 "c:\\program files (x86)\\cypress\\psoc creator\\4.3\\psoc creator\\import\\gnu\\arm\\5.4.
 675              		.file 3 "c:\\program files (x86)\\cypress\\psoc creator\\4.3\\psoc creator\\import\\gnu\\arm\\5.4.
 676              		.file 4 "ErroreCodes.h"
 677              		.file 5 "I2C_Interface.h"
 678              		.file 6 "c:\\program files (x86)\\cypress\\psoc creator\\4.3\\psoc creator\\import\\gnu\\arm\\5.4.
 679              		.file 7 "Generated_Source\\PSoC5/UART.h"
 680              		.file 8 "Generated_Source\\PSoC5/core_cm3.h"